# SymbolsHelper-Confirmed: 4:4.5.95 amd64
libkatepartinterfaces.so.4 libkatepartinterfaces4 #MINVER#
* Build-Depends-Package: kdelibs5-dev
 _ZN10KateBuffer10unwrapLineEi@Base 4:4.4.95
 _ZN10KateBuffer11doHighlightEiib@Base 4:4.4.95
 _ZN10KateBuffer11isEmptyLineE14QSharedPointerIN4Kate12TextLineDataEE@Base 4:4.4.95
 _ZN10KateBuffer11qt_metacallEN11QMetaObject4CallEiPPv@Base 4:4.4.95
 _ZN10KateBuffer11qt_metacastEPKc@Base 4:4.4.95
 _ZN10KateBuffer11setTabWidthEi@Base 4:4.4.95
 _ZN10KateBuffer12setHighlightEi@Base 4:4.4.95
 _ZN10KateBuffer16staticMetaObjectE@Base 4:4.4.95
 _ZN10KateBuffer17ensureHighlightedEi@Base 4:4.4.95
 _ZN10KateBuffer17respellCheckBlockEii@Base 4:4.4.95
 _ZN10KateBuffer18codeFoldingUpdatedEv@Base 4:4.4.95
 _ZN10KateBuffer22invalidateHighlightingEv@Base 4:4.4.95
 _ZN10KateBuffer23codeFoldingColumnUpdateEi@Base 4:4.4.95
 _ZN10KateBuffer5clearEv@Base 4:4.4.95
 _ZN10KateBuffer7editEndEv@Base 4:4.4.95
 _ZN10KateBuffer8openFileERK7QString@Base 4:4.4.95
 _ZN10KateBuffer8saveFileERK7QString@Base 4:4.4.95
 _ZN10KateBuffer8tagLinesEii@Base 4:4.4.95
 _ZN10KateBuffer8wrapLineERKN11KTextEditor6CursorE@Base 4:4.4.95
 _ZN10KateBuffer9canEncodeEv@Base 4:4.4.95
 _ZN10KateBuffer9editStartEv@Base 4:4.4.95
 _ZN10KateBufferC1EP12KateDocument@Base 4:4.4.95
 _ZN10KateBufferC2EP12KateDocument@Base 4:4.4.95
 _ZN10KateBufferD0Ev@Base 4:4.4.95
 _ZN10KateBufferD1Ev@Base 4:4.4.95
 _ZN10KateBufferD2Ev@Base 4:4.4.95
 _ZN10KateGlobal10configPageEiP7QWidget@Base 4:4.4.95
 _ZN10KateGlobal10readConfigEP7KConfig@Base 4:4.4.95
 _ZN10KateGlobal11qt_metacallEN11QMetaObject4CallEiPPv@Base 4:4.4.95
 _ZN10KateGlobal11qt_metacastEPKc@Base 4:4.4.95
 _ZN10KateGlobal11writeConfigEP7KConfig@Base 4:4.4.95
 _ZN10KateGlobal12configDialogEP7QWidget@Base 4:4.4.95
 _ZN10KateGlobal12registerViewEP8KateView@Base 4:4.4.95
 _ZN10KateGlobal12setContainerEP7QObject@Base 4:4.4.95
 _ZN10KateGlobal14createDocumentEP7QObject@Base 4:4.4.95
 _ZN10KateGlobal14deregisterViewEP8KateView@Base 4:4.4.95
 _ZN10KateGlobal15katePartVersionEv@Base 4:4.4.95
 _ZN10KateGlobal15registerCommandEPN11KTextEditor7CommandE@Base 4:4.4.95
 _ZN10KateGlobal16registerDocumentEP12KateDocument@Base 4:4.4.95
 _ZN10KateGlobal16staticMetaObjectE@Base 4:4.4.95
 _ZN10KateGlobal17unregisterCommandEPN11KTextEditor7CommandE@Base 4:4.4.95
 _ZN10KateGlobal18deregisterDocumentEP12KateDocument@Base 4:4.4.95
 _ZN10KateGlobal22registerTemplateScriptEP7QObjectRK7QString@Base 4:4.4.95
 _ZN10KateGlobal24unregisterTemplateScriptEPN11KTextEditor14TemplateScriptE@Base 4:4.4.95
 _ZN10KateGlobal4selfEv@Base 4:4.4.95
 _ZN10KateGlobal5s_refE@Base 4:4.4.95
 _ZN10KateGlobal6s_selfE@Base 4:4.4.95
 _ZN10KateGlobal9containerEv@Base 4:4.4.95
 _ZN10KateGlobal9documentsEv@Base 4:4.4.95
 _ZN10KateGlobalC1Ev@Base 4:4.4.95
 _ZN10KateGlobalC2Ev@Base 4:4.4.95
 _ZN10KateGlobalD0Ev@Base 4:4.4.95
 _ZN10KateGlobalD1Ev@Base 4:4.4.95
 _ZN10KateGlobalD2Ev@Base 4:4.4.95
 (optional=templinst)_ZN12KConfigGroup10writeEntryIiEEvPKcRKT_6QFlagsIN11KConfigBase15WriteConfigFlagEE@Base 4:4.4.95
 _ZN12KateDocument10clearMarksEv@Base 4:4.4.95
 _ZN12KateDocument10createViewEP7QWidget@Base 4:4.4.95
 _ZN12KateDocument10insertLineEiRK7QString@Base 4:4.4.95
 _ZN12KateDocument10insertTextERKN11KTextEditor6CursorERK11QStringListb@Base 4:4.4.95
 _ZN12KateDocument10insertTextERKN11KTextEditor6CursorERK7QStringb@Base 4:4.4.95
 _ZN12KateDocument10kvLineMimeE@Base 4:4.4.95
 _ZN12KateDocument10queryCloseEv@Base 4:4.4.95
 _ZN12KateDocument10rangeEmptyEPN11KTextEditor11MovingRangeE@Base 4:4.4.95
 _ZN12KateDocument10removeLineEi@Base 4:4.4.95
 _ZN12KateDocument10removeMarkEij@Base 4:4.4.95
 _ZN12KateDocument10removeTextERKN11KTextEditor5RangeEb@Base 4:4.4.95
 _ZN12KateDocument10removeViewEPN11KTextEditor4ViewE@Base 4:4.4.95
 _ZN12KateDocument10searchTextERKN11KTextEditor5RangeERK7QString6QFlagsINS0_6Search17SearchOptionsEnumEE@Base 4:4.4.95
 _ZN12KateDocument10setDocNameE7QString@Base 4:4.4.95
 _ZN12KateDocument10simpleModeEv@Base 4:4.4.95
 _ZN12KateDocument11configValueERK7QString@Base 4:4.4.95
 _ZN12KateDocument11foldingTreeEv@Base 4:4.4.95
 _ZN12KateDocument11getRealLineEj@Base 4:4.4.95
 _ZN12KateDocument11insertLinesEiRK11QStringList@Base 4:4.4.95
 _ZN12KateDocument11makeAttribsEb@Base 4:4.4.95
 _ZN12KateDocument11markChangedEPN11KTextEditor8DocumentENS0_4MarkENS0_13MarkInterface16MarkChangeActionE@Base 4:4.4.95
 _ZN12KateDocument11markClickedEPN11KTextEditor8DocumentENS0_4MarkERb@Base 4:4.4.95
 _ZN12KateDocument11printDialogEv@Base 4:4.4.95
 _ZN12KateDocument11qt_metacallEN11QMetaObject4CallEiPPv@Base 4:4.4.95
 _ZN12KateDocument11qt_metacastEPKc@Base 4:4.4.95
 _ZN12KateDocument11recoverDataEv@Base 4:4.5.86
 _ZN12KateDocument11replaceTextERKN11KTextEditor5RangeERK7QStringb@Base 4:4.4.95
 _ZN12KateDocument11setEncodingERK7QString@Base 4:4.4.95
 _ZN12KateDocument11setModifiedEb@Base 4:4.4.95
 _ZN12KateDocument11setWordWrapEb@Base 4:4.4.95
 _ZN12KateDocument11undoChangedEv@Base 4:4.4.95
#MISSING: 4:4.5.86# _ZN12KateDocument11useRevisionEi@Base 4:4.4.95
 _ZN12KateDocument12bomSetByUserEv@Base 4:4.4.95
 _ZN12KateDocument12createDigestER10QByteArray@Base 4:4.4.95
#MISSING: 4:4.5.86# _ZN12KateDocument12deleteRangesEv@Base 4:4.4.95
 _ZN12KateDocument12dialogParentEv@Base 4:4.4.95
 _ZN12KateDocument12documentSaveEv@Base 4:4.4.95
 _ZN12KateDocument12editWrapLineEiibPb@Base 4:4.4.95
 _ZN12KateDocument12kateTextLineEj@Base 4:4.4.95
 _ZN12KateDocument12lockRevisionEx@Base 4:4.4.95
 _ZN12KateDocument12marksChangedEPN11KTextEditor8DocumentE@Base 4:4.4.95
 _ZN12KateDocument12popEditStateEv@Base 4:4.4.95
#MISSING: 4:4.5.86# _ZN12KateDocument12rangeDeletedEPN11KTextEditor10SmartRangeE@Base 4:4.4.95
 _ZN12KateDocument12rangeInvalidEPN11KTextEditor11MovingRangeE@Base 4:4.4.95
 _ZN12KateDocument12repaintViewsEb@Base 4:4.4.95
 _ZN12KateDocument12setReadWriteEb@Base 4:4.4.95
 _ZN12KateDocument12slotCanceledEv@Base 4:4.4.95
 _ZN12KateDocument12updateConfigEv@Base 4:4.4.95
 _ZN12KateDocument12visibleLinesEv@Base 4:4.4.95
 _ZN12KateDocument13checkIntValueE7QStringPi@Base 4:4.4.95
 _ZN12KateDocument13configChangedEv@Base 4:4.4.95
#MISSING: 4:4.5.86# _ZN12KateDocument13deleteCursorsEv@Base 4:4.4.95
#MISSING: 4:4.5.86# _ZN12KateDocument13newSmartRangeEPN11KTextEditor11SmartCursorES2_PNS0_10SmartRangeE6QFlagsINS3_14InsertBehaviorEE@Base 4:4.4.95
#MISSING: 4:4.5.86# _ZN12KateDocument13newSmartRangeERKN11KTextEditor5RangeEPNS0_10SmartRangeE6QFlagsINS4_14InsertBehaviorEE@Base 4:4.4.95
 _ZN12KateDocument13pushEditStateEv@Base 4:4.4.95
 _ZN12KateDocument13readDirConfigEv@Base 4:4.4.95
 _ZN12KateDocument13readVariablesEb@Base 4:4.4.95
 _ZN12KateDocument13setActiveViewEPN11KTextEditor4ViewE@Base 4:4.4.95
 _ZN12KateDocument13setDictionaryERK7QStringRKN11KTextEditor5RangeE@Base 4:4.4.95
 _ZN12KateDocument13setMarkPixmapEN11KTextEditor13MarkInterface9MarkTypesERK7QPixmap@Base 4:4.4.95
 _ZN12KateDocument13setWordWrapAtEj@Base 4:4.4.95
 _ZN12KateDocument13slotCompletedEv@Base 4:4.4.95
 _ZN12KateDocument14checkBoolValueE7QStringPb@Base 4:4.4.95
 _ZN12KateDocument14checkOverwriteE4KUrlP7QWidget@Base 4:4.4.95
 _ZN12KateDocument14documentReloadEv@Base 4:4.4.95
 _ZN12KateDocument14documentSaveAsEv@Base 4:4.4.95
 _ZN12KateDocument14dumpRegionTreeEv@Base 4:4.4.95
 _ZN12KateDocument14editInsertLineEiRK7QString@Base 4:4.5.86
#MISSING: 4:4.5.86# _ZN12KateDocument14editInsertLineEiRK7QStringN4Kate10EditSourceE@Base 4:4.4.95
 _ZN12KateDocument14editInsertTextEiiRK7QString@Base 4:4.5.86
#MISSING: 4:4.5.86# _ZN12KateDocument14editInsertTextEiiRK7QStringN4Kate10EditSourceE@Base 4:4.4.95
 _ZN12KateDocument14editRemoveLineEi@Base 4:4.5.86
#MISSING: 4:4.5.86# _ZN12KateDocument14editRemoveLineEiN4Kate10EditSourceE@Base 4:4.4.95
 _ZN12KateDocument14editRemoveTextEiii@Base 4:4.5.86
#MISSING: 4:4.5.86# _ZN12KateDocument14editRemoveTextEiiiN4Kate10EditSourceE@Base 4:4.4.95
 _ZN12KateDocument14editUnWrapLineEibi@Base 4:4.4.95
 _ZN12KateDocument14getVirtualLineEj@Base 4:4.4.95
 _ZN12KateDocument14inputMethodEndEv@Base 4:4.4.95
 _ZN12KateDocument14kvLineWildcardE@Base 4:4.4.95
 _ZN12KateDocument14lineAttributesEj@Base 4:4.4.95
 _ZN12KateDocument14modifiedOnDiskEPN11KTextEditor8DocumentEbNS0_21ModificationInterface20ModifiedOnDiskReasonE@Base 4:4.4.95
 _ZN12KateDocument14newBracketMarkERKN11KTextEditor6CursorERNS0_5RangeEi@Base 4:4.4.95
 _ZN12KateDocument14newMovingRangeERKN11KTextEditor5RangeE6QFlagsINS0_11MovingRange14InsertBehaviorEENS5_13EmptyBehaviorE@Base 4:4.4.95
#MISSING: 4:4.5.86# _ZN12KateDocument14newSmartCursorERKN11KTextEditor6CursorENS0_11SmartCursor14InsertBehaviorE@Base 4:4.4.95
 _ZN12KateDocument14setConfigValueERK7QStringRK8QVariant@Base 4:4.4.95
 _ZN12KateDocument14transformRangeERN11KTextEditor5RangeE6QFlagsINS0_11MovingRange14InsertBehaviorEENS4_13EmptyBehaviorExx@Base 4:4.4.95
 _ZN12KateDocument14unlockRevisionEx@Base 4:4.4.95
 _ZN12KateDocument14updateFileTypeERK7QStringb@Base 4:4.4.95
 _ZN12KateDocument15bufferHlChangedEv@Base 4:4.4.95
 _ZN12KateDocument15checkColorValueE7QStringR6QColor@Base 4:4.4.95
 _ZN12KateDocument15editLineWrappedEiii@Base 4:4.4.95
 _ZN12KateDocument15editRemoveLinesEii@Base 4:4.5.86
#MISSING: 4:4.5.86# _ZN12KateDocument15editRemoveLinesEiiN4Kate10EditSourceE@Base 4:4.4.95
 _ZN12KateDocument15handleMarkClickEi@Base 4:4.4.95
 _ZN12KateDocument15newMovingCursorERKN11KTextEditor6CursorENS0_12MovingCursor14InsertBehaviorE@Base 4:4.4.95
 _ZN12KateDocument15setViewVariableE7QStringS0_@Base 4:4.4.95
 _ZN12KateDocument15toVirtualColumnERKN11KTextEditor6CursorE@Base 4:4.4.95
 _ZN12KateDocument15transformCursorERN11KTextEditor6CursorENS0_12MovingCursor14InsertBehaviorExx@Base 4:4.4.95
 _ZN12KateDocument15transformCursorERiS0_N11KTextEditor12MovingCursor14InsertBehaviorExx@Base 4:4.4.95
 _ZN12KateDocument15variableChangedEPN11KTextEditor8DocumentERK7QStringS5_@Base 4:4.4.95
 _ZN12KateDocument16activateDirWatchERK7QString@Base 4:4.4.95
#MISSING: 4:4.5.86# _ZN12KateDocument16addActionsToViewEPN11KTextEditor4ViewEPNS0_10SmartRangeE@Base 4:4.4.95
#MISSING: 4:4.5.86# _ZN12KateDocument16attributeDynamicE10KSharedPtrIN11KTextEditor9AttributeEE@Base 4:4.4.95
#MISSING: 4:4.5.86# _ZN12KateDocument16clearViewActionsEPN11KTextEditor4ViewE@Base 4:4.4.95
 _ZN12KateDocument16decodeCharactersERKN11KTextEditor5RangeER5QListI5QPairIiiEES8_@Base 4:4.4.95
 _ZN12KateDocument16inputMethodStartEv@Base 4:4.4.95
 _ZN12KateDocument16readVariableLineE7QStringb@Base 4:4.4.95
 _ZN12KateDocument16setEditableMarksEj@Base 4:4.4.95
 _ZN12KateDocument16slotModOnHdDirtyERK7QString@Base 4:4.4.95
 _ZN12KateDocument16staticMetaObjectE@Base 4:4.4.95
#MISSING: 4:4.5.86# _ZN12KateDocument16unbindSmartRangeEPN11KTextEditor10SmartRangeE@Base 4:4.4.95
 _ZN12KateDocument17aboutToRemoveTextERKN11KTextEditor5RangeE@Base 4:4.4.95
 _ZN12KateDocument17editLineUnWrappedEii@Base 4:4.4.95
 _ZN12KateDocument17internalHlChangedEv@Base 4:4.4.95
 _ZN12KateDocument17plainKateTextLineEj@Base 4:4.4.95
 _ZN12KateDocument17readSessionConfigERK12KConfigGroup@Base 4:4.4.95
 _ZN12KateDocument17respellCheckBlockEPS_ii@Base 4:4.4.95
 _ZN12KateDocument17setModifiedOnDiskEN11KTextEditor21ModificationInterface20ModifiedOnDiskReasonE@Base 4:4.4.95
#MISSING: 4:4.5.86# _ZN12KateDocument18addHighlightToViewEPN11KTextEditor4ViewEPNS0_10SmartRangeEb@Base 4:4.4.95
 _ZN12KateDocument18codeFoldingUpdatedEv@Base 4:4.4.95
 _ZN12KateDocument18deactivateDirWatchEv@Base 4:4.4.95
 _ZN12KateDocument18highlightingModeAtERKN11KTextEditor6CursorE@Base 4:4.4.95
 _ZN12KateDocument18mimeTypeForContentEv@Base 4:4.4.95
 _ZN12KateDocument18requestMarkTooltipEi6QPoint@Base 4:4.4.95
 _ZN12KateDocument18setAnnotationModelEPN11KTextEditor15AnnotationModelE@Base 4:4.4.95
 _ZN12KateDocument18setMarkDescriptionEN11KTextEditor13MarkInterface9MarkTypesERK7QString@Base 4:4.4.95
 _ZN12KateDocument18slotModOnHdCreatedERK7QString@Base 4:4.4.95
 _ZN12KateDocument18slotModOnHdDeletedERK7QString@Base 4:4.4.95
 _ZN12KateDocument18slotModifiedOnDiskEPN11KTextEditor4ViewE@Base 4:4.4.95
 _ZN12KateDocument18writeSessionConfigER12KConfigGroup@Base 4:4.4.95
#MISSING: 4:4.5.86# _ZN12KateDocument19attributeNotDynamicE10KSharedPtrIN11KTextEditor9AttributeEE@Base 4:4.4.95
#MISSING: 4:4.5.86# _ZN12KateDocument19clearSmartInterfaceEv@Base 4:4.4.95
#MISSING: 4:4.5.86# _ZN12KateDocument19clearViewHighlightsEPN11KTextEditor4ViewE@Base 4:4.4.95
 _ZN12KateDocument19discardDataRecoveryEv@Base 4:4.5.86
 _ZN12KateDocument19findMatchingBracketERN11KTextEditor5RangeEi@Base 4:4.4.95
 _ZN12KateDocument19nextNonSpaceCharPosERiS0_@Base 4:4.4.95
 _ZN12KateDocument19preHighlightChangedEj@Base 4:4.4.95
 _ZN12KateDocument19removeStringFromEndEiRK7QString@Base 4:4.4.95
 _ZN12KateDocument19removeTrailingSpaceEi@Base 4:4.4.95
 _ZN12KateDocument19setHighlightingModeERK7QString@Base 4:4.4.95
 _ZN12KateDocument19slotQueryClose_saveEPbS0_@Base 4:4.4.95
#MISSING: 4:4.5.86# _ZN12KateDocument20addActionsToDocumentEPN11KTextEditor10SmartRangeE@Base 4:4.4.95
#MISSING: 4:4.5.86# _ZN12KateDocument20clearDocumentActionsEv@Base 4:4.4.95
 _ZN12KateDocument20markToolTipRequestedEPN11KTextEditor8DocumentENS0_4MarkE6QPointRb@Base 4:4.4.95
 _ZN12KateDocument20refreshOnTheFlyCheckERKN11KTextEditor5RangeE@Base 4:4.4.95
 _ZN12KateDocument20setDefaultDictionaryERK7QString@Base 4:4.4.95
 _ZN12KateDocument20setUndoMergeAllEditsEb@Base 4:4.4.95
 _ZN12KateDocument21clearDictionaryRangesEv@Base 4:4.4.95
 _ZN12KateDocument21deleteDictionaryRangeEPN11KTextEditor11MovingRangeE@Base 4:4.4.95
 _ZN12KateDocument21handleMarkContextMenuEi6QPoint@Base 4:4.4.95
#MISSING: 4:4.5.86# _ZN12KateDocument21removeActionsFromViewEPN11KTextEditor4ViewEPNS0_10SmartRangeE@Base 4:4.4.95
 _ZN12KateDocument21setDontChangeHlOnSaveEv@Base 4:4.4.95
#MISSING: 4:4.5.86# _ZN12KateDocument22addHighlightToDocumentEPN11KTextEditor10SmartRangeEb@Base 4:4.4.95
 _ZN12KateDocument22annotationModelChangedEPN11KTextEditor15AnnotationModelES2_@Base 4:4.4.95
#MISSING: 4:4.5.86# _ZN12KateDocument23clearDocumentHighlightsEv@Base 4:4.4.95
 _ZN12KateDocument23clearMisspellingForWordERK7QString@Base 4:4.4.95
 _ZN12KateDocument23dictionaryRangesPresentEb@Base 4:4.4.95
 _ZN12KateDocument23editMarkLineAutoWrappedEib@Base 4:4.4.95
 _ZN12KateDocument23previousNonSpaceCharPosERiS0_@Base 4:4.4.95
#MISSING: 4:4.5.86# _ZN12KateDocument23removeHighlightFromViewEPN11KTextEditor4ViewEPNS0_10SmartRangeE@Base 4:4.4.95
 _ZN12KateDocument24defaultDictionaryChangedEPS_@Base 4:4.4.95
 _ZN12KateDocument24ignoreModifiedOnDiskOnceEv@Base 4:4.4.95
 _ZN12KateDocument24markContextMenuRequestedEPN11KTextEditor8DocumentENS0_4MarkE6QPointRb@Base 4:4.4.95
 _ZN12KateDocument24setModifiedOnDiskWarningEb@Base 4:4.4.95
 _ZN12KateDocument24setPageUpDownMovesCursorEb@Base 4:4.4.95
 _ZN12KateDocument25computePositionWrtOffsetsERK5QListI5QPairIiiEEi@Base 4:4.4.95
 _ZN12KateDocument25containsCharacterEncodingERKN11KTextEditor5RangeE@Base 4:4.4.95
#MISSING: 4:4.5.86# _ZN12KateDocument25removeActionsFromDocumentEPN11KTextEditor10SmartRangeE@Base 4:4.4.95
 _ZN12KateDocument25removeStringFromBeginningEiRK7QString@Base 4:4.4.95
 _ZN12KateDocument25revertToDefaultDictionaryERKN11KTextEditor5RangeE@Base 4:4.4.95
 _ZN12KateDocument26loadSaveFilterCheckPluginsEv@Base 4:4.4.95
#MISSING: 4:4.5.86# _ZN12KateDocument27removeHighlightFromDocumentEPN11KTextEditor10SmartRangeE@Base 4:4.4.95
 _ZN12KateDocument27replaceCharactersByEncodingERKN11KTextEditor5RangeE@Base 4:4.4.95
 _ZN12KateDocument28onTheFlySpellCheckingEnabledEb@Base 4:4.4.95
 _ZN12KateDocument30addStartLineCommentToSelectionEP8KateViewi@Base 4:4.4.95
 _ZN12KateDocument30addStartStopCommentToSelectionEP8KateViewi@Base 4:4.4.95
 _ZN12KateDocument30readParameterizedSessionConfigERK12KConfigGroupm@Base 4:4.4.95
 _ZN12KateDocument31addStartLineCommentToSingleLineEii@Base 4:4.4.95
 _ZN12KateDocument31addStartStopCommentToSingleLineEii@Base 4:4.4.95
 _ZN12KateDocument31writeParameterizedSessionConfigER12KConfigGroupm@Base 4:4.4.95
 _ZN12KateDocument32insertTemplateTextImplementationERKN11KTextEditor6CursorERK7QStringRK4QMapIS4_S4_EPNS0_14TemplateScriptEP8KateView@Base 4:4.4.95
 _ZN12KateDocument32removeStartStopCommentFromRegionERKN11KTextEditor6CursorES3_i@Base 4:4.4.95
 _ZN12KateDocument35aboutToDeleteMovingInterfaceContentEPN11KTextEditor8DocumentE@Base 4:4.4.95
 _ZN12KateDocument35charactersSemiInteractivelyInsertedERKN11KTextEditor6CursorERK7QString@Base 4:4.4.95
 _ZN12KateDocument35removeStartLineCommentFromSelectionEP8KateViewi@Base 4:4.4.95
 _ZN12KateDocument35removeStartStopCommentFromSelectionEP8KateViewi@Base 4:4.4.95
 _ZN12KateDocument36removeStartLineCommentFromSingleLineEii@Base 4:4.4.95
 _ZN12KateDocument36removeStartStopCommentFromSingleLineEii@Base 4:4.4.95
 _ZN12KateDocument39aboutToInvalidateMovingInterfaceContentEPN11KTextEditor8DocumentE@Base 4:4.4.95
 _ZN12KateDocument3delEP8KateViewRKN11KTextEditor6CursorE@Base 4:4.4.95
 _ZN12KateDocument4markEi@Base 4:4.4.95
 _ZN12KateDocument4redoEv@Base 4:4.4.95
 _ZN12KateDocument4saveEv@Base 4:4.4.95
 _ZN12KateDocument4undoEv@Base 4:4.4.95
 _ZN12KateDocument5alignEP8KateViewRKN11KTextEditor5RangeE@Base 4:4.4.95
 _ZN12KateDocument5clearEv@Base 4:4.4.95
 _ZN12KateDocument5kvVarE@Base 4:4.4.95
 _ZN12KateDocument5marksEv@Base 4:4.4.95
 _ZN12KateDocument5pasteEP8KateViewN10QClipboard4ModeE@Base 4:4.4.95
 _ZN12KateDocument5printEv@Base 4:4.4.95
 _ZN12KateDocument6editorEv@Base 4:4.4.95
 _ZN12KateDocument6indentEN11KTextEditor5RangeEi@Base 4:4.4.95
 _ZN12KateDocument6kvLineE@Base 4:4.4.95
 _ZN12KateDocument6saveAsERK4KUrl@Base 4:4.4.95
 _ZN12KateDocument6widgetEv@Base 4:4.4.95
 _ZN12KateDocument7addMarkEij@Base 4:4.4.95
 _ZN12KateDocument7addViewEPN11KTextEditor4ViewE@Base 4:4.4.95
 _ZN12KateDocument7commentEP8KateViewjji@Base 4:4.4.95
 _ZN12KateDocument7editEndEv@Base 4:4.4.95
 _ZN12KateDocument7getWordERKN11KTextEditor6CursorE@Base 4:4.4.95
 _ZN12KateDocument7newLineEP8KateView@Base 4:4.4.95
 _ZN12KateDocument7setMarkEij@Base 4:4.4.95
 _ZN12KateDocument7setModeERK7QString@Base 4:4.4.95
 _ZN12KateDocument7setTextERK11QStringList@Base 4:4.4.95
 _ZN12KateDocument7setTextERK7QString@Base 4:4.4.95
 _ZN12KateDocument8closeUrlEv@Base 4:4.4.95
 _ZN12KateDocument8lineInfoEP12KateLineInfoj@Base 4:4.4.95
 _ZN12KateDocument8mimeTypeEv@Base 4:4.4.95
 _ZN12KateDocument8openFileEv@Base 4:4.4.95
 _ZN12KateDocument8saveFileEv@Base 4:4.4.95
 _ZN12KateDocument8swapFileEv@Base 4:4.5.86
 _ZN12KateDocument8tagLinesEN11KTextEditor6CursorES1_@Base 4:4.4.95
 _ZN12KateDocument8tagLinesEii@Base 4:4.4.95
 _ZN12KateDocument8wrapTextEii@Base 4:4.4.95
 _ZN12KateDocument9backspaceEP8KateViewRKN11KTextEditor6CursorE@Base 4:4.4.95
 _ZN12KateDocument9clearMarkEi@Base 4:4.4.95
#MISSING: 4:4.5.86# _ZN12KateDocument9editStartEN4Kate10EditSourceE@Base 4:4.4.95
 _ZN12KateDocument9editStartEv@Base 4:4.5.86
 _ZN12KateDocument9insertTabEP8KateViewRKN11KTextEditor6CursorE@Base 4:4.5.86
 _ZN12KateDocument9joinLinesEjj@Base 4:4.4.95
 _ZN12KateDocument9ownedViewEP8KateView@Base 4:4.4.95
 _ZN12KateDocument9transformEP8KateViewRKN11KTextEditor6CursorENS_13TextTransformE@Base 4:4.4.95
 _ZN12KateDocument9transposeERKN11KTextEditor6CursorE@Base 4:4.4.95
 _ZN12KateDocument9typeCharsEP8KateViewRK7QString@Base 4:4.4.95
 _ZN12KateDocumentC1EbbbP7QWidgetP7QObject@Base 4:4.4.95
 _ZN12KateDocumentC2EbbbP7QWidgetP7QObject@Base 4:4.4.95
 _ZN12KateDocumentD0Ev@Base 4:4.4.95
 _ZN12KateDocumentD1Ev@Base 4:4.4.95
 _ZN12KateDocumentD2Ev@Base 4:4.4.95
 _ZN13KateSearchBar10replaceAllEv@Base 4:4.4.95
 _ZN13KateSearchBar10sendConfigEv@Base 4:4.4.95
 _ZN13KateSearchBar11qt_metacallEN11QMetaObject4CallEiPPv@Base 4:4.4.95
 _ZN13KateSearchBar11qt_metacastEPKc@Base 4:4.4.95
 _ZN13KateSearchBar11replaceNextEv@Base 4:4.4.95
 _ZN13KateSearchBar11selectRangeEP8KateViewRKN11KTextEditor5RangeE@Base 4:4.4.95
 _ZN13KateSearchBar12backupConfigEb@Base 4:4.4.95
 _ZN13KateSearchBar12findPreviousEv@Base 4:4.4.95
 _ZN13KateSearchBar12selectRange2ERKN11KTextEditor5RangeE@Base 4:4.4.95
 _ZN13KateSearchBar12setMatchCaseEb@Base 4:4.4.95
 _ZN13KateSearchBar13indicateMatchENS_11MatchResultE@Base 4:4.4.95
 _ZN13KateSearchBar13setSearchModeENS_10SearchModeE@Base 4:4.4.95
 _ZN13KateSearchBar14enterPowerModeEv@Base 4:4.4.95
 _ZN13KateSearchBar14highlightMatchERKN11KTextEditor5RangeE@Base 4:4.4.95
 _ZN13KateSearchBar15clearHighlightsEv@Base 4:4.4.95
 _ZN13KateSearchBar15onReturnPressedEv@Base 4:4.4.95
 _ZN13KateSearchBar16fixForSingleLineERN11KTextEditor5RangeENS_15SearchDirectionE@Base 4:4.4.95
 _ZN13KateSearchBar16setSearchPatternERK7QString@Base 4:4.4.95
 _ZN13KateSearchBar16setSelectionOnlyEb@Base 4:4.4.95
 _ZN13KateSearchBar16staticMetaObjectE@Base 4:4.4.95
 _ZN13KateSearchBar17setReplacePatternERK7QString@Base 4:4.4.95
 _ZN13KateSearchBar18onMatchCaseToggledEb@Base 4:4.4.95
 _ZN13KateSearchBar18onPowerModeChangedEi@Base 4:4.4.95
 _ZN13KateSearchBar19givePatternFeedbackEv@Base 4:4.4.95
 _ZN13KateSearchBar19onIncPatternChangedERK7QString@Base 4:4.4.95
 _ZN13KateSearchBar19updateIncInitCursorEv@Base 4:4.4.95
 _ZN13KateSearchBar19updateSelectionOnlyEv@Base 4:4.4.95
 _ZN13KateSearchBar20enterIncrementalModeEv@Base 4:4.4.95
 _ZN13KateSearchBar20highlightReplacementERKN11KTextEditor5RangeE@Base 4:4.4.95
 _ZN13KateSearchBar21nextMatchForSelectionEP8KateViewNS_15SearchDirectionE@Base 4:4.4.95
 _ZN13KateSearchBar21onPowerPatternChangedERK7QString@Base 4:4.4.95
 _ZN13KateSearchBar23addCurrentTextToHistoryEP9QComboBox@Base 4:4.4.95
 _ZN13KateSearchBar23showExtendedContextMenuEbRK6QPoint@Base 4:4.4.95
 _ZN13KateSearchBar32onPowerPatternContextMenuRequestERK6QPoint@Base 4:4.4.95
 _ZN13KateSearchBar32onPowerPatternContextMenuRequestEv@Base 4:4.4.95
 _ZN13KateSearchBar35onPowerReplacmentContextMenuRequestERK6QPoint@Base 4:4.4.95
 _ZN13KateSearchBar35onPowerReplacmentContextMenuRequestEv@Base 4:4.4.95
 _ZN13KateSearchBar4findENS_15SearchDirectionEPK7QString@Base 4:4.4.95
#MISSING: 4:4.5.95# _ZN13KateSearchBar6closedEv@Base 4:4.4.95
 _ZN13KateSearchBar7findAllEN11KTextEditor5RangeEPK7QString@Base 4:4.4.95
 _ZN13KateSearchBar7findAllEv@Base 4:4.4.95
 _ZN13KateSearchBar8findNextEv@Base 4:4.4.95
 _ZN13KateSearchBar9showEventEP10QShowEvent@Base 4:4.4.95
 _ZN13KateSearchBarC1EbP8KateViewP14KateViewConfig@Base 4:4.4.95
 _ZN13KateSearchBarC2EbP8KateViewP14KateViewConfig@Base 4:4.4.95
 _ZN13KateSearchBarD0Ev@Base 4:4.4.95
 _ZN13KateSearchBarD1Ev@Base 4:4.4.95
 _ZN13KateSearchBarD2Ev@Base 4:4.4.95
 _ZN14KateScriptView11qt_metacallEN11QMetaObject4CallEiPPv@Base 4:4.4.95
 _ZN14KateScriptView11qt_metacastEPKc@Base 4:4.4.95
 _ZN14KateScriptView12hasSelectionEv@Base 4:4.4.95
 _ZN14KateScriptView12selectedTextEv@Base 4:4.4.95
 _ZN14KateScriptView12setSelectionERKN11KTextEditor5RangeE@Base 4:4.4.95
 _ZN14KateScriptView14clearSelectionEv@Base 4:4.4.95
 _ZN14KateScriptView14cursorPositionEv@Base 4:4.4.95
 _ZN14KateScriptView16staticMetaObjectE@Base 4:4.4.95
 _ZN14KateScriptView17setCursorPositionERKN11KTextEditor6CursorE@Base 4:4.4.95
 _ZN14KateScriptView17setCursorPositionEii@Base 4:4.4.95
 _ZN14KateScriptView18removeSelectedTextEv@Base 4:4.4.95
 _ZN14KateScriptView21virtualCursorPositionEv@Base 4:4.4.95
 _ZN14KateScriptView24setVirtualCursorPositionERKN11KTextEditor6CursorE@Base 4:4.4.95
 _ZN14KateScriptView24setVirtualCursorPositionEii@Base 4:4.4.95
 _ZN14KateScriptView4viewEv@Base 4:4.4.95
 _ZN14KateScriptView7setViewEP8KateView@Base 4:4.4.95
 _ZN14KateScriptView9selectAllEv@Base 4:4.4.95
 _ZN14KateScriptView9selectionEv@Base 4:4.4.95
 _ZN14KateScriptViewC1EP7QObject@Base 4:4.4.95
 _ZN14KateScriptViewC2EP7QObject@Base 4:4.4.95
 _ZN14KateViewConfig10readConfigERK12KConfigGroup@Base 4:4.4.95
 _ZN14KateViewConfig10setIconBarEb@Base 4:4.4.95
 _ZN14KateViewConfig11writeConfigER12KConfigGroup@Base 4:4.4.95
 _ZN14KateViewConfig12updateConfigEv@Base 4:4.4.95
 _ZN14KateViewConfig13setFoldingBarEb@Base 4:4.4.95
 _ZN14KateViewConfig14setDynWordWrapEb@Base 4:4.4.95
 _ZN14KateViewConfig14setLineNumbersEb@Base 4:4.4.95
 _ZN14KateViewConfig14setSearchFlagsEl@Base 4:4.4.95
 _ZN14KateViewConfig14setViInputModeEb@Base 4:4.4.95
 _ZN14KateViewConfig15setBookmarkSortEi@Base 4:4.4.95
 _ZN14KateViewConfig15setSmartCopyCutEb@Base 4:4.4.95
 _ZN14KateViewConfig16setAllowMarkMenuEb@Base 4:4.5.86
 _ZN14KateViewConfig16setScrollPastEndEb@Base 4:4.4.95
 _ZN14KateViewConfig17setScrollBarMarksEb@Base 4:4.4.95
 _ZN14KateViewConfig17setWordCompletionEb@Base 4:4.4.95
 _ZN14KateViewConfig18setAutoCenterLinesEi@Base 4:4.4.95
 _ZN14KateViewConfig18setDefaultMarkTypeEj@Base 4:4.4.95
 _ZN14KateViewConfig19patternHistoryModelEv@Base 4:4.4.95
 _ZN14KateViewConfig22setPersistentSelectionEb@Base 4:4.4.95
 _ZN14KateViewConfig23replacementHistoryModelEv@Base 4:4.4.95
 _ZN14KateViewConfig23setViInputModeStealKeysEb@Base 4:4.4.95
 _ZN14KateViewConfig24setDynWordWrapIndicatorsEi@Base 4:4.4.95
 _ZN14KateViewConfig25setDynWordWrapAlignIndentEi@Base 4:4.4.95
 _ZN14KateViewConfig27setViInputModeHideStatusBarEb@Base 4:4.4.95
 _ZN14KateViewConfig32setAutomaticCompletionInvocationEb@Base 4:4.4.95
 _ZN14KateViewConfig34setWordCompletionMinimalWordLengthEi@Base 4:4.4.95
 _ZN14KateViewConfig8s_globalE@Base 4:4.4.95
 _ZN14KateViewConfigC1EP8KateView@Base 4:4.4.95
 _ZN14KateViewConfigC1Ev@Base 4:4.4.95
 _ZN14KateViewConfigC2EP8KateView@Base 4:4.4.95
 _ZN14KateViewConfigC2Ev@Base 4:4.4.95
 _ZN14KateViewConfigD0Ev@Base 4:4.4.95
 _ZN14KateViewConfigD1Ev@Base 4:4.4.95
 _ZN14KateViewConfigD2Ev@Base 4:4.4.95
 _ZN15KateUndoManager10activeViewEv@Base 4:4.4.95
 _ZN15KateUndoManager10undoCancelEv@Base 4:4.4.95
 _ZN15KateUndoManager11addUndoItemEP8KateUndo@Base 4:4.4.95
 _ZN15KateUndoManager11qt_metacallEN11QMetaObject4CallEiPPv@Base 4:4.4.95
 _ZN15KateUndoManager11qt_metacastEPKc@Base 4:4.4.95
 _ZN15KateUndoManager11setModifiedEb@Base 4:4.4.95
 _ZN15KateUndoManager11undoChangedEv@Base 4:4.4.95
 _ZN15KateUndoManager11viewCreatedEPN11KTextEditor8DocumentEPNS0_4ViewE@Base 4:4.4.95
 _ZN15KateUndoManager12updateConfigEv@Base 4:4.4.95
 _ZN15KateUndoManager13undoSafePointEv@Base 4:4.4.95
 _ZN15KateUndoManager14inputMethodEndEv@Base 4:4.4.95
 _ZN15KateUndoManager14updateModifiedEv@Base 4:4.4.95
 _ZN15KateUndoManager15isActiveChangedEb@Base 4:4.4.95
 _ZN15KateUndoManager15slotLineRemovedEiRK7QString@Base 4:4.4.95
 _ZN15KateUndoManager15slotLineWrappedEiiib@Base 4:4.4.95
 _ZN15KateUndoManager15slotTextRemovedEiiRK7QString@Base 4:4.4.95
 _ZN15KateUndoManager16inputMethodStartEv@Base 4:4.4.95
 _ZN15KateUndoManager16slotLineInsertedEiRK7QString@Base 4:4.4.95
 _ZN15KateUndoManager16slotTextInsertedEiiRK7QString@Base 4:4.4.95
 _ZN15KateUndoManager16staticMetaObjectE@Base 4:4.4.95
 _ZN15KateUndoManager17slotLineUnWrappedEiiib@Base 4:4.4.95
 _ZN15KateUndoManager20setAllowComplexMergeEb@Base 4:4.4.95
 _ZN15KateUndoManager23slotMarkLineAutoWrappedEib@Base 4:4.4.95
 _ZN15KateUndoManager4redoEv@Base 4:4.4.95
 _ZN15KateUndoManager4undoEv@Base 4:4.4.95
 _ZN15KateUndoManager7editEndEv@Base 4:4.4.95
 _ZN15KateUndoManager7endUndoEv@Base 4:4.4.95
 _ZN15KateUndoManager7redoEndEPN11KTextEditor8DocumentE@Base 4:4.4.95
 _ZN15KateUndoManager7undoEndEPN11KTextEditor8DocumentE@Base 4:4.4.95
 _ZN15KateUndoManager8documentEv@Base 4:4.4.95
 _ZN15KateUndoManager9clearRedoEv@Base 4:4.4.95
 _ZN15KateUndoManager9clearUndoEv@Base 4:4.4.95
 _ZN15KateUndoManager9editStartEv@Base 4:4.4.95
 _ZN15KateUndoManager9redoStartEPN11KTextEditor8DocumentE@Base 4:4.4.95
 _ZN15KateUndoManager9setActiveEb@Base 4:4.4.95
 _ZN15KateUndoManager9startUndoEv@Base 4:4.4.95
 _ZN15KateUndoManager9undoStartEPN11KTextEditor8DocumentE@Base 4:4.4.95
 _ZN15KateUndoManagerC1EP12KateDocument@Base 4:4.4.95
 _ZN15KateUndoManagerC2EP12KateDocument@Base 4:4.4.95
 _ZN15KateUndoManagerD0Ev@Base 4:4.4.95
 _ZN15KateUndoManagerD1Ev@Base 4:4.4.95
 _ZN15KateUndoManagerD2Ev@Base 4:4.4.95
 _ZN16KateGlobalConfig10readConfigERK12KConfigGroup@Base 4:4.4.95
 _ZN16KateGlobalConfig11writeConfigER12KConfigGroup@Base 4:4.4.95
 _ZN16KateGlobalConfig12updateConfigEv@Base 4:4.4.95
 _ZN16KateGlobalConfig13setProberTypeEN15KEncodingProber10ProberTypeE@Base 4:4.4.95
 _ZN16KateGlobalConfig19setFallbackEncodingERK7QString@Base 4:4.4.95
 _ZN16KateGlobalConfig8s_globalE@Base 4:4.4.95
 _ZN16KateGlobalConfigC1Ev@Base 4:4.4.95
 _ZN16KateGlobalConfigC2Ev@Base 4:4.4.95
 _ZN16KateGlobalConfigD0Ev@Base 4:4.4.95
 _ZN16KateGlobalConfigD1Ev@Base 4:4.4.95
 _ZN16KateGlobalConfigD2Ev@Base 4:4.4.95
 _ZN16KateRegExpSearch15escapePlaintextERK7QString@Base 4:4.4.95
 _ZN16KateRegExpSearch16buildReplacementERK7QStringRK11QStringListi@Base 4:4.4.95
 _ZN16KateRegExpSearch16buildReplacementERK7QStringRK11QStringListib@Base 4:4.4.95
 _ZN16KateRegExpSearch17ReplacementStreamC1ERK11QStringList@Base 4:4.4.95
 _ZN16KateRegExpSearch17ReplacementStreamC2ERK11QStringList@Base 4:4.4.95
 _ZN16KateRegExpSearch17ReplacementStreamlsENS0_14CaseConversionE@Base 4:4.4.95
 _ZN16KateRegExpSearch17ReplacementStreamlsERK7QString@Base 4:4.4.95
 _ZN16KateRegExpSearch17ReplacementStreamlsERKNS0_3capE@Base 4:4.4.95
 _ZN16KateRegExpSearch17ReplacementStreamlsERKNS0_7counterE@Base 4:4.4.95
 _ZN16KateRegExpSearch6searchERK7QStringRKN11KTextEditor5RangeEb@Base 4:4.4.95
 _ZN16KateRegExpSearchC1EPN11KTextEditor8DocumentEN2Qt15CaseSensitivityE@Base 4:4.4.95
 _ZN16KateRegExpSearchC2EPN11KTextEditor8DocumentEN2Qt15CaseSensitivityE@Base 4:4.4.95
 _ZN16KateRegExpSearchD1Ev@Base 4:4.4.95
 _ZN16KateRegExpSearchD2Ev@Base 4:4.4.95
 _ZN18KateDocumentConfig10readConfigERK12KConfigGroup@Base 4:4.4.95
 _ZN18KateDocumentConfig11setEncodingERK7QString@Base 4:4.4.95
 _ZN18KateDocumentConfig11setShowTabsEb@Base 4:4.5.86
 _ZN18KateDocumentConfig11setTabWidthEi@Base 4:4.4.95
 _ZN18KateDocumentConfig11setWordWrapEb@Base 4:4.4.95
 _ZN18KateDocumentConfig11writeConfigER12KConfigGroup@Base 4:4.4.95
 _ZN18KateDocumentConfig12setSmartHomeEb@Base 4:4.5.86
 _ZN18KateDocumentConfig12updateConfigEv@Base 4:4.4.95
 _ZN18KateDocumentConfig13setShowSpacesEb@Base 4:4.5.86
 _ZN18KateDocumentConfig13setTabIndentsEb@Base 4:4.5.86
 _ZN18KateDocumentConfig13setWordWrapAtEj@Base 4:4.4.95
 _ZN18KateDocumentConfig13setWrapCursorEb@Base 4:4.5.86
 _ZN18KateDocumentConfig14setBackupFlagsEj@Base 4:4.4.95
#MISSING: 4:4.5.86# _ZN18KateDocumentConfig14setConfigFlagsENS_11ConfigFlagsEb@Base 4:4.4.95
#MISSING: 4:4.5.86# _ZN18KateDocumentConfig14setConfigFlagsEj@Base 4:4.4.95
 _ZN18KateDocumentConfig14setTabHandlingEj@Base 4:4.4.95
 _ZN18KateDocumentConfig15setAutoBracketsEb@Base 4:4.5.86
 _ZN18KateDocumentConfig15setBackupPrefixERK7QString@Base 4:4.4.95
 _ZN18KateDocumentConfig15setBackupSuffixERK7QString@Base 4:4.4.95
 _ZN18KateDocumentConfig15setRemoveSpacesEb@Base 4:4.5.86
 _ZN18KateDocumentConfig17setReplaceTabsDynEb@Base 4:4.5.86
 _ZN18KateDocumentConfig17setSwapFileNoSyncEb@Base 4:4.5.86
 _ZN18KateDocumentConfig18setAllowSimpleModeEb@Base 4:4.4.95
 _ZN18KateDocumentConfig18setIndentationModeERK7QString@Base 4:4.4.95
 _ZN18KateDocumentConfig18setKeepExtraSpacesEb@Base 4:4.5.86
 _ZN18KateDocumentConfig19setBackspaceIndentsEb@Base 4:4.5.86
 _ZN18KateDocumentConfig19setIndentPastedTextEb@Base 4:4.5.86
 _ZN18KateDocumentConfig19setIndentationWidthEi@Base 4:4.4.95
 _ZN18KateDocumentConfig20setAllowEolDetectionEb@Base 4:4.4.95
 _ZN18KateDocumentConfig20setRemoveTrailingDynEb@Base 4:4.5.86
 _ZN18KateDocumentConfig21setOnTheFlySpellCheckEb@Base 4:4.4.95
 _ZN18KateDocumentConfig23setSearchDirConfigDepthEi@Base 4:4.4.95
 _ZN18KateDocumentConfig24setPageUpDownMovesCursorEb@Base 4:4.4.95
 _ZN18KateDocumentConfig6setBomEb@Base 4:4.4.95
 _ZN18KateDocumentConfig6setEolEi@Base 4:4.4.95
 _ZN18KateDocumentConfig6setOvrEb@Base 4:4.5.86
 _ZN18KateDocumentConfig8s_globalE@Base 4:4.4.95
 _ZN18KateDocumentConfig9eolStringEv@Base 4:4.4.95
 _ZN18KateDocumentConfigC1EP12KateDocument@Base 4:4.4.95
 _ZN18KateDocumentConfigC1ERK12KConfigGroup@Base 4:4.5.86
 _ZN18KateDocumentConfigC1Ev@Base 4:4.4.95
 _ZN18KateDocumentConfigC2EP12KateDocument@Base 4:4.4.95
 _ZN18KateDocumentConfigC2ERK12KConfigGroup@Base 4:4.5.86
 _ZN18KateDocumentConfigC2Ev@Base 4:4.4.95
 _ZN18KateDocumentConfigD0Ev@Base 4:4.4.95
 _ZN18KateDocumentConfigD1Ev@Base 4:4.4.95
 _ZN18KateDocumentConfigD2Ev@Base 4:4.4.95
 _ZN18KateScriptDocument10canBreakAtERK7QStringi@Base 4:4.4.95
 _ZN18KateScriptDocument10canCommentEii@Base 4:4.4.95
 _ZN18KateScriptDocument10commentEndEi@Base 4:4.4.95
 _ZN18KateScriptDocument10insertLineEiRK7QString@Base 4:4.4.95
 _ZN18KateScriptDocument10insertTextERKN11KTextEditor6CursorERK7QString@Base 4:4.4.95
 _ZN18KateScriptDocument10insertTextEiiRK7QString@Base 4:4.4.95
 _ZN18KateScriptDocument10isModifiedEv@Base 4:4.4.95
 _ZN18KateScriptDocument10lastColumnEi@Base 4:4.4.95
 _ZN18KateScriptDocument10lineLengthEi@Base 4:4.4.95
 _ZN18KateScriptDocument10removeLineEi@Base 4:4.4.95
 _ZN18KateScriptDocument10removeTextERKN11KTextEditor5RangeE@Base 4:4.4.95
 _ZN18KateScriptDocument10removeTextERKN11KTextEditor6CursorES3_@Base 4:4.4.95
 _ZN18KateScriptDocument10removeTextEiiii@Base 4:4.4.95
 _ZN18KateScriptDocument10startsWithEiRK7QStringb@Base 4:4.4.95
 _ZN18KateScriptDocument11defStyleNumERKN11KTextEditor6CursorE@Base 4:4.4.95
 _ZN18KateScriptDocument11defStyleNumEii@Base 4:4.4.95
 _ZN18KateScriptDocument11documentEndEv@Base 4:4.4.95
 _ZN18KateScriptDocument11firstColumnEi@Base 4:4.4.95
 _ZN18KateScriptDocument11isAttributeERKN11KTextEditor6CursorEi@Base 4:4.4.95
 _ZN18KateScriptDocument11isAttributeEiii@Base 4:4.4.95
 _ZN18KateScriptDocument11qt_metacallEN11QMetaObject4CallEiPPv@Base 4:4.4.95
 _ZN18KateScriptDocument11qt_metacastEPKc@Base 4:4.4.95
 _ZN18KateScriptDocument11setDocumentEP12KateDocument@Base 4:4.4.95
 _ZN18KateScriptDocument12commentStartEi@Base 4:4.4.95
 _ZN18KateScriptDocument13attributeNameERKN11KTextEditor6CursorE@Base 4:4.4.95
 _ZN18KateScriptDocument13attributeNameEii@Base 4:4.4.95
 _ZN18KateScriptDocument13commentMarkerEi@Base 4:4.4.95
 _ZN18KateScriptDocument13documentRangeEv@Base 4:4.4.95
 _ZN18KateScriptDocument14isRegionMarkerERKN11KTextEditor6CursorE@Base 4:4.4.95
 _ZN18KateScriptDocument14isRegionMarkerEii@Base 4:4.4.95
 _ZN18KateScriptDocument15isAttributeNameERKN11KTextEditor6CursorERK7QString@Base 4:4.4.95
 _ZN18KateScriptDocument15isAttributeNameEiiRK7QString@Base 4:4.4.95
 _ZN18KateScriptDocument15toVirtualColumnERKN11KTextEditor6CursorE@Base 4:4.4.95
 _ZN18KateScriptDocument15toVirtualColumnEii@Base 4:4.4.95
 _ZN18KateScriptDocument15toVirtualCursorERKN11KTextEditor6CursorE@Base 4:4.4.95
 _ZN18KateScriptDocument16highlightingModeEv@Base 4:4.4.95
 _ZN18KateScriptDocument16nextNonEmptyLineEi@Base 4:4.4.95
 _ZN18KateScriptDocument16prevNonEmptyLineEi@Base 4:4.4.95
 _ZN18KateScriptDocument16staticMetaObjectE@Base 4:4.4.95
 _ZN18KateScriptDocument17fromVirtualColumnERKN11KTextEditor6CursorE@Base 4:4.4.95
 _ZN18KateScriptDocument17fromVirtualColumnEii@Base 4:4.4.95
 _ZN18KateScriptDocument17fromVirtualCursorERKN11KTextEditor6CursorE@Base 4:4.4.95
 _ZN18KateScriptDocument17lastVirtualColumnEi@Base 4:4.4.95
 _ZN18KateScriptDocument18firstVirtualColumnEi@Base 4:4.4.95
 _ZN18KateScriptDocument18highlightingModeAtERKN11KTextEditor6CursorE@Base 4:4.4.95
 _ZN18KateScriptDocument18nextNonSpaceColumnERKN11KTextEditor6CursorE@Base 4:4.4.95
 _ZN18KateScriptDocument18nextNonSpaceColumnEii@Base 4:4.4.95
 _ZN18KateScriptDocument18prevNonSpaceColumnERKN11KTextEditor6CursorE@Base 4:4.4.95
 _ZN18KateScriptDocument18prevNonSpaceColumnEii@Base 4:4.4.95
 _ZN18KateScriptDocument25embeddedHighlightingModesEv@Base 4:4.4.95
 _ZN18KateScriptDocument3urlEv@Base 4:4.4.95
 _ZN18KateScriptDocument4lineEi@Base 4:4.4.95
 _ZN18KateScriptDocument4textERKN11KTextEditor5RangeE@Base 4:4.4.95
 _ZN18KateScriptDocument4textERKN11KTextEditor6CursorES3_@Base 4:4.4.95
 _ZN18KateScriptDocument4textEiiii@Base 4:4.4.95
 _ZN18KateScriptDocument4textEv@Base 4:4.4.95
 _ZN18KateScriptDocument5alignERKN11KTextEditor5RangeE@Base 4:4.5.86
 _ZN18KateScriptDocument5clearEv@Base 4:4.4.95
 _ZN18KateScriptDocument5linesEv@Base 4:4.4.95
 _ZN18KateScriptDocument5rfindERKN11KTextEditor6CursorERK7QStringi@Base 4:4.4.95
 _ZN18KateScriptDocument5rfindEiiRK7QStringi@Base 4:4.4.95
 _ZN18KateScriptDocument6anchorERKN11KTextEditor6CursorE5QChar@Base 4:4.4.95
 _ZN18KateScriptDocument6anchorEii5QChar@Base 4:4.4.95
 _ZN18KateScriptDocument6charAtERKN11KTextEditor6CursorE@Base 4:4.4.95
 _ZN18KateScriptDocument6charAtEii@Base 4:4.4.95
 _ZN18KateScriptDocument6indentEN11KTextEditor5RangeEi@Base 4:4.4.95
 _ZN18KateScriptDocument6isCharERKN11KTextEditor6CursorE@Base 4:4.4.95
 _ZN18KateScriptDocument6isCharEii@Base 4:4.4.95
 _ZN18KateScriptDocument6isCodeERKN11KTextEditor6CursorE@Base 4:4.4.95
 _ZN18KateScriptDocument6isCodeEii@Base 4:4.4.95
 _ZN18KateScriptDocument6lengthEv@Base 4:4.4.95
 _ZN18KateScriptDocument6wordAtERKN11KTextEditor6CursorE@Base 4:4.4.95
 _ZN18KateScriptDocument6wordAtEii@Base 4:4.4.95
 _ZN18KateScriptDocument7_isCodeEi@Base 4:4.4.95
 _ZN18KateScriptDocument7editEndEv@Base 4:4.4.95
 _ZN18KateScriptDocument7isSpaceERKN11KTextEditor6CursorE@Base 4:4.4.95
 _ZN18KateScriptDocument7isSpaceEii@Base 4:4.4.95
 _ZN18KateScriptDocument7setTextERK7QString@Base 4:4.4.95
 _ZN18KateScriptDocument8documentEv@Base 4:4.4.95
 _ZN18KateScriptDocument8encodingEv@Base 4:4.4.95
 _ZN18KateScriptDocument8endsWithEiRK7QStringb@Base 4:4.4.95
 _ZN18KateScriptDocument8fileNameEv@Base 4:4.4.95
 _ZN18KateScriptDocument8isInWordERK7QStringi@Base 4:4.4.95
 _ZN18KateScriptDocument8isOthersERKN11KTextEditor6CursorE@Base 4:4.4.95
 _ZN18KateScriptDocument8isOthersEii@Base 4:4.4.95
 _ZN18KateScriptDocument8isStringERKN11KTextEditor6CursorE@Base 4:4.4.95
 _ZN18KateScriptDocument8isStringEii@Base 4:4.4.95
 _ZN18KateScriptDocument8lastCharEi@Base 4:4.4.95
 _ZN18KateScriptDocument8mimeTypeEv@Base 4:4.4.95
 _ZN18KateScriptDocument8truncateERKN11KTextEditor6CursorE@Base 4:4.4.95
 _ZN18KateScriptDocument8truncateEii@Base 4:4.4.95
 _ZN18KateScriptDocument8variableERK7QString@Base 4:4.4.95
 _ZN18KateScriptDocument9attributeERKN11KTextEditor6CursorE@Base 4:4.4.95
 _ZN18KateScriptDocument9attributeEii@Base 4:4.4.95
 _ZN18KateScriptDocument9editBeginEv@Base 4:4.4.95
 _ZN18KateScriptDocument9firstCharEi@Base 4:4.4.95
 _ZN18KateScriptDocument9isCommentERKN11KTextEditor6CursorE@Base 4:4.4.95
 _ZN18KateScriptDocument9isCommentEii@Base 4:4.4.95
 _ZN18KateScriptDocument9joinLinesEii@Base 4:4.4.95
 _ZN18KateScriptDocument9matchesAtERKN11KTextEditor6CursorERK7QString@Base 4:4.4.95
 _ZN18KateScriptDocument9matchesAtEiiRK7QString@Base 4:4.4.95
 _ZN18KateScriptDocumentC1EP7QObject@Base 4:4.4.95
 _ZN18KateScriptDocumentC2EP7QObject@Base 4:4.4.95
 _ZN19KateCodeFoldingTree10addOpeningEP19KateCodeFoldingNodeaP7QVectorIiEjj@Base 4:4.4.95
 _ZN19KateCodeFoldingTree10isTopLevelEj@Base 4:4.4.95
 _ZN19KateCodeFoldingTree10updateLineEjP7QVectorIiEPbbb@Base 4:4.4.95
 _ZN19KateCodeFoldingTree11collapseOneEi@Base 4:4.4.95
 _ZN19KateCodeFoldingTree11getLineInfoEP12KateLineInfoj@Base 4:4.4.95
 _ZN19KateCodeFoldingTree11getRealLineEj@Base 4:4.4.95
 _ZN19KateCodeFoldingTree11qt_metacallEN11QMetaObject4CallEiPPv@Base 4:4.4.95
 _ZN19KateCodeFoldingTree11qt_metacastEPKc@Base 4:4.4.95
 _ZN19KateCodeFoldingTree12decrementBy1EP19KateCodeFoldingNodeS1_@Base 4:4.4.95
 _ZN19KateCodeFoldingTree12getStartLineEP19KateCodeFoldingNode@Base 4:4.4.95
 _ZN19KateCodeFoldingTree12incrementBy1EP19KateCodeFoldingNodeS1_@Base 4:4.4.95
 _ZN19KateCodeFoldingTree12removeEndingEP19KateCodeFoldingNodej@Base 4:4.4.95
 _ZN19KateCodeFoldingTree13ensureVisibleEj@Base 4:4.4.95
 _ZN19KateCodeFoldingTree13removeOpeningEP19KateCodeFoldingNodej@Base 4:4.4.95
 _ZN19KateCodeFoldingTree14correctEndingsEaP19KateCodeFoldingNodejji@Base 4:4.4.95
 _ZN19KateCodeFoldingTree14getVirtualLineEj@Base 4:4.4.95
 _ZN19KateCodeFoldingTree14moveSubNodesUpEP19KateCodeFoldingNode@Base 4:4.4.95
 _ZN19KateCodeFoldingTree15findNodeForLineEj@Base 4:4.4.95
 _ZN19KateCodeFoldingTree16dontDeleteEndingEP19KateCodeFoldingNode@Base 4:4.4.95
 _ZN19KateCodeFoldingTree16staticMetaObjectE@Base 4:4.4.95
 _ZN19KateCodeFoldingTree17dontDeleteOpeningEP19KateCodeFoldingNode@Base 4:4.4.95
 _ZN19KateCodeFoldingTree18addHiddenLineBlockEP19KateCodeFoldingNodej@Base 4:4.4.95
 _ZN19KateCodeFoldingTree18addNodeToFoundListEP19KateCodeFoldingNodeji@Base 4:4.4.95
 _ZN19KateCodeFoldingTree18findNodeStartingAtEj@Base 4:4.4.95
 _ZN19KateCodeFoldingTree18lineHasBeenRemovedEj@Base 4:4.4.95
 _ZN19KateCodeFoldingTree19addNodeToRemoveListEP19KateCodeFoldingNodej@Base 4:4.4.95
 _ZN19KateCodeFoldingTree19expandToplevelNodesEi@Base 4:4.4.95
 _ZN19KateCodeFoldingTree19findNodeForPositionEjj@Base 4:4.4.95
 _ZN19KateCodeFoldingTree19getHiddenLinesCountEj@Base 4:4.4.95
 _ZN19KateCodeFoldingTree19lineHasBeenInsertedEj@Base 4:4.4.95
 _ZN19KateCodeFoldingTree20cleanupUnneededNodesEj@Base 4:4.4.95
 _ZN19KateCodeFoldingTree20updateHiddenSubNodesEP19KateCodeFoldingNode@Base 4:4.4.95
 _ZN19KateCodeFoldingTree21collapseToplevelNodesEv@Base 4:4.4.95
 _ZN19KateCodeFoldingTree22toggleRegionVisibilityEj@Base 4:4.4.95
 _ZN19KateCodeFoldingTree24existsOpeningAtLineAfterEjP19KateCodeFoldingNode@Base 4:4.4.95
 _ZN19KateCodeFoldingTree25findNodeForLineDescendingEP19KateCodeFoldingNodejjb@Base 4:4.4.95
 _ZN19KateCodeFoldingTree25regionVisibilityChangedAtEjb@Base 4:4.4.95
 _ZN19KateCodeFoldingTree26regionBeginEndAddedRemovedEj@Base 4:4.4.95
 _ZN19KateCodeFoldingTree28findAllNodesOpenedOrClosedAtEj@Base 4:4.4.95
 _ZN19KateCodeFoldingTree29addOpening_further_iterationsEP19KateCodeFoldingNodeaP7QVectorIiEjijj@Base 4:4.4.95
 _ZN19KateCodeFoldingTree45findAndMarkAllNodesforRemovalOpenedOrClosedAtEj@Base 4:4.4.95
 _ZN19KateCodeFoldingTree5clearEv@Base 4:4.4.95
 _ZN19KateCodeFoldingTree7fixRootEi@Base 4:4.4.95
 _ZN19KateCodeFoldingTree7trueValE@Base 4:4.4.95
 _ZN19KateCodeFoldingTree8dumpNodeEP19KateCodeFoldingNodeRK7QString@Base 4:4.4.95
 _ZN19KateCodeFoldingTree9debugDumpEv@Base 4:4.4.95
 _ZN19KateCodeFoldingTree9expandOneEii@Base 4:4.4.95
 _ZN19KateCodeFoldingTreeC1EP10KateBuffer@Base 4:4.4.95
 _ZN19KateCodeFoldingTreeC2EP10KateBuffer@Base 4:4.4.95
 _ZN19KateCodeFoldingTreeD0Ev@Base 4:4.4.95
 _ZN19KateCodeFoldingTreeD1Ev@Base 4:4.4.95
 _ZN19KateCodeFoldingTreeD2Ev@Base 4:4.4.95
 _ZN19KateCompletionModel10columnNameEi@Base 4:4.4.95
 _ZN19KateCompletionModel10createItemERK24HierarchicalModelHandlerRK11QModelIndexb@Base 4:4.4.95
 _ZN19KateCompletionModel10debugStatsEv@Base 4:4.4.95
 _ZN19KateCompletionModel10fetchGroupEiRK7QStringb@Base 4:4.4.95
 _ZN19KateCompletionModel11clearGroupsEb@Base 4:4.4.95
 _ZN19KateCompletionModel11createItemsERK24HierarchicalModelHandlerRK11QModelIndexb@Base 4:4.4.95
 _ZN19KateCompletionModel11deleteItemsERK11QModelIndex@Base 4:4.4.95
 _ZN19KateCompletionModel11expandIndexERK11QModelIndex@Base 4:4.4.95
 _ZN19KateCompletionModel11qt_metacallEN11QMetaObject4CallEiPPv@Base 4:4.4.95
 _ZN19KateCompletionModel11qt_metacastEPKc@Base 4:4.4.95
 _ZN19KateCompletionModel11rowSelectedERK11QModelIndex@Base 4:4.4.95
 _ZN19KateCompletionModel12createGroupsEv@Base 4:4.4.95
 _ZN19KateCompletionModel12propertyNameEN11KTextEditor19CodeCompletionModel18CompletionPropertyE@Base 4:4.4.95
 _ZN19KateCompletionModel14slotModelResetEv@Base 4:4.4.95
 _ZN19KateCompletionModel15hideOrShowGroupEPNS_5GroupEb@Base 4:4.4.95
 _ZN19KateCompletionModel15setColumnMergesERK5QListIS0_IiEE@Base 4:4.4.95
 _ZN19KateCompletionModel15slotRowsRemovedERK11QModelIndexii@Base 4:4.4.95
 _ZN19KateCompletionModel16slotRowsInsertedERK11QModelIndexii@Base 4:4.4.95
 _ZN19KateCompletionModel16staticMetaObjectE@Base 4:4.4.95
 _ZN19KateCompletionModel17changeCompletionsEPNS_5GroupENS_11changeTypesE@Base 4:4.4.95
 _ZN19KateCompletionModel17setGroupingMethodE6QFlagsINS_2gmEE@Base 4:4.4.95
 _ZN19KateCompletionModel17setSortingEnabledEb@Base 4:4.4.95
 _ZN19KateCompletionModel17updateBestMatchesEv@Base 4:4.4.95
 _ZN19KateCompletionModel18addCompletionModelEPN11KTextEditor19CodeCompletionModelE@Base 4:4.4.95
 _ZN19KateCompletionModel18setCompletionModelEPN11KTextEditor19CodeCompletionModelE@Base 4:4.4.95
 _ZN19KateCompletionModel18setGroupingEnabledEb@Base 4:4.4.95
 _ZN19KateCompletionModel19setCompletionModelsERK5QListIPN11KTextEditor19CodeCompletionModelEE@Base 4:4.4.95
 _ZN19KateCompletionModel19setFilterAttributesE6QFlagsIN11KTextEditor19CodeCompletionModel18CompletionPropertyEE@Base 4:4.4.95
 _ZN19KateCompletionModel19setFilteringEnabledEb@Base 4:4.4.95
 _ZN19KateCompletionModel20argumentHintsChangedEv@Base 4:4.4.95
 _ZN19KateCompletionModel20makeGroupItemsUniqueEb@Base 4:4.5.90
 _ZN19KateCompletionModel20setCurrentCompletionEPN11KTextEditor19CodeCompletionModelERK7QString@Base 4:4.4.95
 _ZN19KateCompletionModel20setFilterByAttributeEb@Base 4:4.4.95
 _ZN19KateCompletionModel21clearCompletionModelsEv@Base 4:4.4.95
 _ZN19KateCompletionModel21removeCompletionModelEPN11KTextEditor19CodeCompletionModelE@Base 4:4.4.95
 _ZN19KateCompletionModel21setAccessIncludeConstEb@Base 4:4.4.95
 _ZN19KateCompletionModel22contentGeometryChangedEv@Base 4:4.4.95
 _ZN19KateCompletionModel22setAccessIncludeStaticEb@Base 4:4.4.95
 _ZN19KateCompletionModel22setSortingAlphabeticalEb@Base 4:4.4.95
 _ZN19KateCompletionModel23setColumnMergingEnabledEb@Base 4:4.4.95
 _ZN19KateCompletionModel23setMatchCaseSensitivityEN2Qt15CaseSensitivityE@Base 4:4.4.95
 _ZN19KateCompletionModel25setSortingCaseSensitivityEN2Qt15CaseSensitivityE@Base 4:4.4.95
 _ZN19KateCompletionModel26setAccessIncludeSignalSlotEb@Base 4:4.4.95
 _ZN19KateCompletionModel26setMaximumInheritanceDepthEi@Base 4:4.4.95
 _ZN19KateCompletionModel27setFilterContextMatchesOnlyEb@Base 4:4.4.95
 _ZN19KateCompletionModel28setSortingByInheritanceDepthEb@Base 4:4.4.95
 _ZN19KateCompletionModel4Item5matchEv@Base 4:4.4.95
 _ZN19KateCompletionModel4Item6filterEv@Base 4:4.4.95
 _ZN19KateCompletionModel4ItemC1EbPS_RK24HierarchicalModelHandler5QPairIPN11KTextEditor19CodeCompletionModelE11QModelIndexE@Base 4:4.4.95
 _ZN19KateCompletionModel4ItemC2EbPS_RK24HierarchicalModelHandler5QPairIPN11KTextEditor19CodeCompletionModelE11QModelIndexE@Base 4:4.4.95
 _ZN19KateCompletionModel4sortEiN2Qt9SortOrderE@Base 4:4.4.95
 _ZN19KateCompletionModel5Group10removeItemERK5QPairIPN11KTextEditor19CodeCompletionModelE11QModelIndexE@Base 4:4.4.95
 _ZN19KateCompletionModel5Group5clearEv@Base 4:4.4.95
 _ZN19KateCompletionModel5Group6resortEv@Base 4:4.4.95
 _ZN19KateCompletionModel5Group7addItemENS_4ItemEb@Base 4:4.4.95
 _ZN19KateCompletionModel5Group8refilterEv@Base 4:4.4.95
 _ZN19KateCompletionModel5GroupC1EPS_@Base 4:4.4.95
 _ZN19KateCompletionModel5GroupC2EPS_@Base 4:4.4.95
 _ZN19KateCompletionModel6resortEv@Base 4:4.4.95
 _ZN19KateCompletionModel8refilterEv@Base 4:4.4.95
 _ZN19KateCompletionModelC1EP20KateCompletionWidget@Base 4:4.4.95
 _ZN19KateCompletionModelC2EP20KateCompletionWidget@Base 4:4.4.95
 _ZN19KateCompletionModelD0Ev@Base 4:4.4.95
 _ZN19KateCompletionModelD1Ev@Base 4:4.4.95
 _ZN19KateCompletionModelD2Ev@Base 4:4.4.95
 _ZN19KatePlainTextSearch6searchERK7QStringRKN11KTextEditor5RangeEb@Base 4:4.4.95
 _ZN19KatePlainTextSearchC1EPN11KTextEditor8DocumentEN2Qt15CaseSensitivityEb@Base 4:4.4.95
 _ZN19KatePlainTextSearchC2EPN11KTextEditor8DocumentEN2Qt15CaseSensitivityEb@Base 4:4.4.95
 _ZN19KatePlainTextSearchD1Ev@Base 4:4.4.95
 _ZN19KatePlainTextSearchD2Ev@Base 4:4.4.95
 _ZN20KateCompletionWidget10cursorDownEv@Base 4:4.4.95
 _ZN20KateCompletionWidget10insertTextERKN11KTextEditor6CursorERK7QString@Base 4:4.5.86
 _ZN20KateCompletionWidget10modelResetEv@Base 4:4.4.95
 _ZN20KateCompletionWidget10navigateUpEv@Base 4:4.4.95
 _ZN20KateCompletionWidget10removeTextERKN11KTextEditor5RangeE@Base 4:4.5.86
 _ZN20KateCompletionWidget10showConfigEv@Base 4:4.4.95
 _ZN20KateCompletionWidget10switchListEv@Base 4:4.4.95
 _ZN20KateCompletionWidget10unwrapLineEi@Base 4:4.5.86
 _ZN20KateCompletionWidget11eventFilterEP7QObjectP6QEvent@Base 4:4.4.95
 _ZN20KateCompletionWidget11qt_metacallEN11QMetaObject4CallEiPPv@Base 4:4.4.95
 _ZN20KateCompletionWidget11qt_metacastEPKc@Base 4:4.4.95
 _ZN20KateCompletionWidget11resizeEventEP12QResizeEvent@Base 4:4.4.95
 _ZN20KateCompletionWidget12navigateBackEv@Base 4:4.4.95
 _ZN20KateCompletionWidget12navigateDownEv@Base 4:4.4.95
 _ZN20KateCompletionWidget12navigateLeftEv@Base 4:4.4.95
 _ZN20KateCompletionWidget12rowsInsertedERK11QModelIndexii@Base 4:4.4.95
 _ZN20KateCompletionWidget12updateHeightEv@Base 4:4.4.95
 _ZN20KateCompletionWidget12viewFocusOutEv@Base 4:4.4.95
 _ZN20KateCompletionWidget13navigateRightEv@Base 4:4.4.95
 _ZN20KateCompletionWidget13updateAndShowEv@Base 4:4.4.95
 _ZN20KateCompletionWidget14modelDestroyedEP7QObject@Base 4:4.4.95
 _ZN20KateCompletionWidget14navigateAcceptEv@Base 4:4.4.95
 _ZN20KateCompletionWidget14toggleExpandedEbb@Base 4:4.4.95
 _ZN20KateCompletionWidget14updatePositionEb@Base 4:4.4.95
 _ZN20KateCompletionWidget15abortCompletionEv@Base 4:4.4.95
 _ZN20KateCompletionWidget15startCompletionEN11KTextEditor19CodeCompletionModel14InvocationTypeERK5QListIPS1_E@Base 4:4.4.95
 _ZN20KateCompletionWidget15startCompletionERKN11KTextEditor5RangeEPNS0_19CodeCompletionModelENS4_14InvocationTypeE@Base 4:4.4.95
 _ZN20KateCompletionWidget15startCompletionERKN11KTextEditor5RangeERK5QListIPNS0_19CodeCompletionModelEENS5_14InvocationTypeE@Base 4:4.4.95
 _ZN20KateCompletionWidget16staticMetaObjectE@Base 4:4.4.95
 _ZN20KateCompletionWidget17waitForModelResetEv@Base 4:4.4.95
 _ZN20KateCompletionWidget18resetHadNavigationEv@Base 4:4.4.95
 _ZN20KateCompletionWidget18updatePositionSlotEv@Base 4:4.4.95
 _ZN20KateCompletionWidget19automaticInvocationEv@Base 4:4.4.95
 _ZN20KateCompletionWidget19modelContentChangedEv@Base 4:4.4.95
 _ZN20KateCompletionWidget20argumentHintsChangedEb@Base 4:4.4.95
 _ZN20KateCompletionWidget20completionModelResetEv@Base 4:4.4.95
 _ZN20KateCompletionWidget21currentEmbeddedWidgetEv@Base 4:4.4.95
 _ZN20KateCompletionWidget21cursorPositionChangedEv@Base 4:4.4.95
 _ZN20KateCompletionWidget21userInvokedCompletionEv@Base 4:4.4.95
 _ZN20KateCompletionWidget22deleteCompletionRangesEv@Base 4:4.4.95
 _ZN20KateCompletionWidget22setCurrentItemExpandedEb@Base 4:4.4.95
 _ZN20KateCompletionWidget23registerCompletionModelEPN11KTextEditor19CodeCompletionModelE@Base 4:4.4.95
 _ZN20KateCompletionWidget25unregisterCompletionModelEPN11KTextEditor19CodeCompletionModelE@Base 4:4.4.95
 _ZN20KateCompletionWidget26updateArgumentHintGeometryEv@Base 4:4.4.95
 _ZN20KateCompletionWidget27setAutomaticInvocationDelayEi@Base 4:4.4.95
 _ZN20KateCompletionWidget3tabEb@Base 4:4.4.95
 _ZN20KateCompletionWidget3topEv@Base 4:4.4.95
 _ZN20KateCompletionWidget5clearEv@Base 4:4.4.95
 _ZN20KateCompletionWidget5modelEv@Base 4:4.4.95
 _ZN20KateCompletionWidget6bottomEv@Base 4:4.4.95
 _ZN20KateCompletionWidget6pageUpEv@Base 4:4.4.95
 _ZN20KateCompletionWidget7executeEv@Base 4:4.4.95
 _ZN20KateCompletionWidget8cursorUpEv@Base 4:4.4.95
#MISSING: 4:4.5.86# _ZN20KateCompletionWidget8editDoneEP12KateEditInfo@Base 4:4.4.95
 _ZN20KateCompletionWidget8pageDownEv@Base 4:4.4.95
 _ZN20KateCompletionWidget8wrapLineERKN11KTextEditor6CursorE@Base 4:4.5.86
 _ZN20KateCompletionWidget9showEventEP10QShowEvent@Base 4:4.4.95
 _ZN20KateCompletionWidgetC1EP8KateView@Base 4:4.4.95
 _ZN20KateCompletionWidgetC2EP8KateView@Base 4:4.4.95
 _ZN20KateCompletionWidgetD0Ev@Base 4:4.4.95
 _ZN20KateCompletionWidgetD1Ev@Base 4:4.4.95
 _ZN20KateCompletionWidgetD2Ev@Base 4:4.4.95
 _ZN4Kate10TextBuffer10insertTextERKN11KTextEditor6CursorERK7QString@Base 4:4.4.95
 _ZN4Kate10TextBuffer10removeTextERKN11KTextEditor5RangeE@Base 4:4.4.95
 _ZN4Kate10TextBuffer10unwrapLineEi@Base 4:4.4.95
 _ZN4Kate10TextBuffer11lineWrappedERKN11KTextEditor6CursorE@Base 4:4.4.95
 _ZN4Kate10TextBuffer11qt_metacallEN11QMetaObject4CallEiPPv@Base 4:4.4.95
 _ZN4Kate10TextBuffer11qt_metacastEPKc@Base 4:4.4.95
 _ZN4Kate10TextBuffer11textRemovedERKN11KTextEditor5RangeERK7QString@Base 4:4.4.95
 _ZN4Kate10TextBuffer12balanceBlockEi@Base 4:4.4.95
 _ZN4Kate10TextBuffer12startEditingEv@Base 4:4.4.95
 _ZN4Kate10TextBuffer12textInsertedERKN11KTextEditor6CursorERK7QString@Base 4:4.4.95
 _ZN4Kate10TextBuffer13finishEditingEv@Base 4:4.4.95
 _ZN4Kate10TextBuffer13fixStartLinesEi@Base 4:4.4.95
 _ZN4Kate10TextBuffer13lineUnwrappedEi@Base 4:4.4.95
 _ZN4Kate10TextBuffer14editingStartedEv@Base 4:4.4.95
 _ZN4Kate10TextBuffer15editingFinishedEv@Base 4:4.4.95
 _ZN4Kate10TextBuffer16invalidateRangesEv@Base 4:4.5.86
 _ZN4Kate10TextBuffer16staticMetaObjectE@Base 4:4.4.95
 _ZN4Kate10TextBuffer22notifyAboutRangeChangeEPN11KTextEditor4ViewEiib@Base 4:4.4.95
 _ZN4Kate10TextBuffer4loadERK7QStringRb@Base 4:4.4.95
 _ZN4Kate10TextBuffer4saveERK7QString@Base 4:4.4.95
 _ZN4Kate10TextBuffer5clearEv@Base 4:4.4.95
 _ZN4Kate10TextBuffer5savedERK7QString@Base 4:4.4.95
 _ZN4Kate10TextBuffer6loadedERK7QStringb@Base 4:4.4.95
 _ZN4Kate10TextBuffer7clearedEv@Base 4:4.4.95
 _ZN4Kate10TextBuffer8wrapLineERKN11KTextEditor6CursorE@Base 4:4.4.95
 _ZN4Kate10TextBufferC1EPN11KTextEditor8DocumentEi@Base 4:4.4.95
 _ZN4Kate10TextBufferC2EPN11KTextEditor8DocumentEi@Base 4:4.4.95
 _ZN4Kate10TextBufferD0Ev@Base 4:4.4.95
 _ZN4Kate10TextBufferD1Ev@Base 4:4.4.95
 _ZN4Kate10TextBufferD2Ev@Base 4:4.4.95
 _ZN4Kate10TextCursor11setPositionERKN11KTextEditor6CursorE@Base 4:4.4.95
 _ZN4Kate10TextCursor11setPositionERKN11KTextEditor6CursorEb@Base 4:4.4.95
 _ZN4Kate10TextCursor11setPositionERKS0_@Base 4:4.5.86
 _ZN4Kate10TextCursorC1ERNS_10TextBufferEPNS_9TextRangeERKN11KTextEditor6CursorENS5_12MovingCursor14InsertBehaviorE@Base 4:4.4.95
 _ZN4Kate10TextCursorC1ERNS_10TextBufferERKN11KTextEditor6CursorENS3_12MovingCursor14InsertBehaviorE@Base 4:4.4.95
 _ZN4Kate10TextCursorC2ERNS_10TextBufferEPNS_9TextRangeERKN11KTextEditor6CursorENS5_12MovingCursor14InsertBehaviorE@Base 4:4.4.95
 _ZN4Kate10TextCursorC2ERNS_10TextBufferERKN11KTextEditor6CursorENS3_12MovingCursor14InsertBehaviorE@Base 4:4.4.95
 _ZN4Kate10TextCursorD0Ev@Base 4:4.4.95
 _ZN4Kate10TextCursorD1Ev@Base 4:4.4.95
 _ZN4Kate10TextCursorD2Ev@Base 4:4.4.95
 _ZN4Kate11TextHistory10insertTextERKN11KTextEditor6CursorEii@Base 4:4.4.95
 _ZN4Kate11TextHistory10removeTextERKN11KTextEditor5RangeEi@Base 4:4.5.2
 _ZN4Kate11TextHistory10unwrapLineEii@Base 4:4.4.95
 _ZN4Kate11TextHistory12lockRevisionEx@Base 4:4.4.95
 _ZN4Kate11TextHistory14transformRangeERN11KTextEditor5RangeE6QFlagsINS1_11MovingRange14InsertBehaviorEENS5_13EmptyBehaviorExx@Base 4:4.4.95
 _ZN4Kate11TextHistory14unlockRevisionEx@Base 4:4.4.95
 _ZN4Kate11TextHistory15transformCursorERiS1_N11KTextEditor12MovingCursor14InsertBehaviorExx@Base 4:4.4.95
 _ZN4Kate11TextHistory20setLastSavedRevisionEv@Base 4:4.4.95
 _ZN4Kate11TextHistory5clearEv@Base 4:4.4.95
 _ZN4Kate11TextHistory8addEntryERKNS0_5EntryE@Base 4:4.4.95
 _ZN4Kate11TextHistory8wrapLineERKN11KTextEditor6CursorE@Base 4:4.4.95
 _ZN4Kate11TextHistoryC1ERNS_10TextBufferE@Base 4:4.4.95
 _ZN4Kate11TextHistoryC2ERNS_10TextBufferE@Base 4:4.4.95
 _ZN4Kate11TextHistoryD1Ev@Base 4:4.4.95
 _ZN4Kate11TextHistoryD2Ev@Base 4:4.4.95
 _ZN4Kate12TextLineData12addAttributeEiii@Base 4:4.4.95
 _ZN4Kate12TextLineDataC1ERK7QString@Base 4:4.4.95
 _ZN4Kate12TextLineDataC1Ev@Base 4:4.4.95
 _ZN4Kate12TextLineDataC2ERK7QString@Base 4:4.4.95
 _ZN4Kate12TextLineDataC2Ev@Base 4:4.4.95
 _ZN4Kate12TextLineDataD1Ev@Base 4:4.4.95
 _ZN4Kate12TextLineDataD2Ev@Base 4:4.4.95
 _ZN4Kate8SwapFile10fileClosedEv@Base 4:4.5.86
 _ZN4Kate8SwapFile10fileLoadedERK7QString@Base 4:4.5.86
 _ZN4Kate8SwapFile10insertTextERKN11KTextEditor6CursorERK7QString@Base 4:4.5.86
 _ZN4Kate8SwapFile10removeTextERKN11KTextEditor5RangeE@Base 4:4.5.86
 _ZN4Kate8SwapFile10unwrapLineEi@Base 4:4.5.86
 _ZN4Kate8SwapFile11qt_metacallEN11QMetaObject4CallEiPPv@Base 4:4.5.86
 _ZN4Kate8SwapFile11qt_metacastEPKc@Base 4:4.5.86
 _ZN4Kate8SwapFile12startEditingEv@Base 4:4.5.86
 _ZN4Kate8SwapFile13configChangedEv@Base 4:4.5.95
 _ZN4Kate8SwapFile13finishEditingEv@Base 4:4.5.86
 _ZN4Kate8SwapFile13swapFileFoundEv@Base 4:4.5.86
 _ZN4Kate8SwapFile14removeSwapFileEv@Base 4:4.5.86
 _ZN4Kate8SwapFile14swapFileBrokenEv@Base 4:4.5.86
 _ZN4Kate8SwapFile14updateFileNameEv@Base 4:4.5.86
 _ZN4Kate8SwapFile15swapFileHandledEv@Base 4:4.5.86
 _ZN4Kate8SwapFile15writeFileToDiskEv@Base 4:4.5.86
 _ZN4Kate8SwapFile16staticMetaObjectE@Base 4:4.5.86
 _ZN4Kate8SwapFile18setTrackingEnabledEb@Base 4:4.5.86
 _ZN4Kate8SwapFile7discardEv@Base 4:4.5.86
 _ZN4Kate8SwapFile7recoverER11QDataStream@Base 4:4.5.86
 _ZN4Kate8SwapFile7recoverEv@Base 4:4.5.86
 _ZN4Kate8SwapFile7s_timerE@Base 4:4.5.86
 _ZN4Kate8SwapFile8fileNameEv@Base 4:4.5.86
 _ZN4Kate8SwapFile8wrapLineERKN11KTextEditor6CursorE@Base 4:4.5.86
 _ZN4Kate8SwapFile9fileSavedERK7QString@Base 4:4.5.86
 _ZN4Kate8SwapFile9syncTimerEv@Base 4:4.5.86
 _ZN4Kate8SwapFileC1EP12KateDocument@Base 4:4.5.86
 _ZN4Kate8SwapFileC2EP12KateDocument@Base 4:4.5.86
 _ZN4Kate8SwapFileD0Ev@Base 4:4.5.86
 _ZN4Kate8SwapFileD1Ev@Base 4:4.5.86
 _ZN4Kate8SwapFileD2Ev@Base 4:4.5.86
 _ZN4Kate9TextBlock10insertTextERKN11KTextEditor6CursorERK7QString@Base 4:4.4.95
 _ZN4Kate9TextBlock10mergeBlockEPS0_@Base 4:4.4.95
 _ZN4Kate9TextBlock10removeTextERKN11KTextEditor5RangeER7QString@Base 4:4.4.95
 _ZN4Kate9TextBlock10splitBlockEi@Base 4:4.4.95
 _ZN4Kate9TextBlock10unwrapLineEiPS0_@Base 4:4.4.95
 _ZN4Kate9TextBlock11removeRangeEPNS_9TextRangeE@Base 4:4.4.95
 _ZN4Kate9TextBlock11updateRangeEPNS_9TextRangeE@Base 4:4.4.95
 _ZN4Kate9TextBlock12setStartLineEi@Base 4:4.4.95
 _ZN4Kate9TextBlock17clearBlockContentEPS0_@Base 4:4.4.95
 _ZN4Kate9TextBlock18deleteBlockContentEv@Base 4:4.4.95
 _ZN4Kate9TextBlock8wrapLineERKN11KTextEditor6CursorE@Base 4:4.4.95
 _ZN4Kate9TextBlockC1EPNS_10TextBufferEi@Base 4:4.4.95
 _ZN4Kate9TextBlockC2EPNS_10TextBufferEi@Base 4:4.4.95
 _ZN4Kate9TextBlockD1Ev@Base 4:4.4.95
 _ZN4Kate9TextBlockD2Ev@Base 4:4.4.95
 _ZN4Kate9TextRange11setFeedbackEPN11KTextEditor19MovingRangeFeedbackE@Base 4:4.4.95
 _ZN4Kate9TextRange12setAttributeE10KSharedPtrIN11KTextEditor9AttributeEE@Base 4:4.4.95
 _ZN4Kate9TextRange13checkValidityEiib@Base 4:4.4.95
 _ZN4Kate9TextRange16setEmptyBehaviorEN11KTextEditor11MovingRange13EmptyBehaviorE@Base 4:4.4.95
 _ZN4Kate9TextRange18setInsertBehaviorsE6QFlagsIN11KTextEditor11MovingRange14InsertBehaviorEE@Base 4:4.4.95
 _ZN4Kate9TextRange24setAttributeOnlyForViewsEb@Base 4:4.4.95
 _ZN4Kate9TextRange7setViewEPN11KTextEditor4ViewE@Base 4:4.4.95
 _ZN4Kate9TextRange8setRangeERKN11KTextEditor5RangeE@Base 4:4.4.95
 _ZN4Kate9TextRange9fixLookupEiiii@Base 4:4.4.95
 _ZN4Kate9TextRange9setZDepthEd@Base 4:4.4.95
 _ZN4Kate9TextRangeC1ERNS_10TextBufferERKN11KTextEditor5RangeE6QFlagsINS3_11MovingRange14InsertBehaviorEENS8_13EmptyBehaviorE@Base 4:4.4.95
 _ZN4Kate9TextRangeC2ERNS_10TextBufferERKN11KTextEditor5RangeE6QFlagsINS3_11MovingRange14InsertBehaviorEENS8_13EmptyBehaviorE@Base 4:4.4.95
 _ZN4Kate9TextRangeD0Ev@Base 4:4.4.95
 _ZN4Kate9TextRangeD1Ev@Base 4:4.4.95
 _ZN4Kate9TextRangeD2Ev@Base 4:4.4.95
 _ZN7KateCmd13appendHistoryERK7QString@Base 4:4.4.95
 _ZN7KateCmd15registerCommandEPN11KTextEditor7CommandE@Base 4:4.4.95
 _ZN7KateCmd17unregisterCommandEPN11KTextEditor7CommandE@Base 4:4.4.95
 _ZN7KateCmd23commandCompletionObjectEv@Base 4:4.4.95
 _ZN7KateCmd4selfEv@Base 4:4.4.95
 _ZN7KateCmdC1Ev@Base 4:4.4.95
 _ZN7KateCmdC2Ev@Base 4:4.4.95
 _ZN7KateCmdD1Ev@Base 4:4.4.95
 _ZN7KateCmdD2Ev@Base 4:4.4.95
 _ZN8KateView10capitalizeEv@Base 4:4.4.95
 _ZN8KateView10cmdLineBarEv@Base 4:4.4.95
 _ZN8KateView10cursorLeftEv@Base 4:4.4.95
 _ZN8KateView10iconBorderEv@Base 4:4.4.95
 _ZN8KateView10navigateUpEv@Base 4:4.4.95
 _ZN8KateView10recoverBarEv@Base 4:4.5.86
 _ZN8KateView10reloadFileEv@Base 4:4.4.95
 _ZN8KateView10scrollDownEv@Base 4:4.4.95
 _ZN8KateView10selectLineERKN11KTextEditor6CursorE@Base 4:4.4.95
 _ZN8KateView10selectWordERKN11KTextEditor6CursorE@Base 4:4.4.95
 _ZN8KateView10updateViewEb@Base 4:4.4.95
 _ZN8KateView11cleanIndentEv@Base 4:4.4.95
 _ZN8KateView11configValueERK7QString@Base 4:4.4.95
 _ZN8KateView11cursorRightEv@Base 4:4.4.95
 _ZN8KateView11qt_metacallEN11QMetaObject4CallEiPPv@Base 4:4.4.95
 _ZN8KateView11qt_metacastEPKc@Base 4:4.4.95
 _ZN8KateView11repaintTextEb@Base 4:4.4.95
 _ZN8KateView11shiftBottomEv@Base 4:4.4.95
 _ZN8KateView11shiftPageUpEv@Base 4:4.4.95
 _ZN8KateView12bottomOfViewEv@Base 4:4.4.95
 _ZN8KateView12findPreviousEv@Base 4:4.4.95
 _ZN8KateView12lineSelectedEi@Base 4:4.4.95
 _ZN8KateView12navigateBackEv@Base 4:4.4.95
 _ZN8KateView12navigateDownEv@Base 4:4.4.95
 _ZN8KateView12navigateLeftEv@Base 4:4.4.95
 _ZN8KateView12needTextHintERKN11KTextEditor6CursorER7QString@Base 4:4.4.95
#MISSING: 4:4.5.86# _ZN8KateView12rangeDeletedEPN11KTextEditor10SmartRangeE@Base 4:4.4.95
 _ZN8KateView12setSelectionERKN11KTextEditor5RangeE@Base 4:4.4.95
 _ZN8KateView12setupActionsEv@Base 4:4.4.95
 _ZN8KateView12slotGotFocusEv@Base 4:4.4.95
 _ZN8KateView12smartNewlineEv@Base 4:4.4.95
 _ZN8KateView12spellingMenuEv@Base 4:4.4.95
 _ZN8KateView12tagSelectionERKN11KTextEditor5RangeE@Base 4:4.4.95
 _ZN8KateView12toggleInsertEv@Base 4:4.4.95
 _ZN8KateView12updateConfigEv@Base 4:4.4.95
 _ZN8KateView12visibleRangeEv@Base 4:4.4.95
 _ZN8KateView13applyWordWrapEv@Base 4:4.4.95
 _ZN8KateView13configChangedEv@Base 4:4.4.95
 _ZN8KateView13dictionaryBarEv@Base 4:4.4.95
 _ZN8KateView13dropEventPassEP10QDropEvent@Base 4:4.4.95
 _ZN8KateView13editSetCursorERKN11KTextEditor6CursorE@Base 4:4.4.95
 _ZN8KateView13hideViModeBarEv@Base 4:4.4.95
 _ZN8KateView13lineNumbersOnEv@Base 4:4.4.95
 _ZN8KateView13navigateRightEv@Base 4:4.4.95
#MISSING: 4:4.5.86# _ZN8KateView13relayoutRangeERKN11KTextEditor5RangeEb@Base 4:4.4.95
 _ZN8KateView13setIconBorderEb@Base 4:4.4.95
 _ZN8KateView13shiftPageDownEv@Base 4:4.4.95
 _ZN8KateView13shiftWordLeftEv@Base 4:4.4.95
 _ZN8KateView13showViModeBarEv@Base 4:4.4.95
 _ZN8KateView13slotHlChangedEv@Base 4:4.4.95
 _ZN8KateView13slotLostFocusEv@Base 4:4.4.95
 _ZN8KateView13toggleCommentEv@Base 4:4.4.95
 _ZN8KateView14clearSelectionEbb@Base 4:4.4.95
 _ZN8KateView14clearSelectionEv@Base 4:4.4.95
 _ZN8KateView14cursorSelectedERKN11KTextEditor6CursorE@Base 4:4.4.95
 _ZN8KateView14deleteWordLeftEv@Base 4:4.4.95
 _ZN8KateView14hideRecoverBarEv@Base 4:4.5.86
 _ZN8KateView14navigateAcceptEv@Base 4:4.4.95
 _ZN8KateView14scrollBarMarksEv@Base 4:4.4.95
 _ZN8KateView14setConfigValueERK7QStringRK8QVariant@Base 4:4.4.95
 _ZN8KateView14setContextMenuEP5QMenu@Base 4:4.4.95
 _ZN8KateView14shiftTopOfViewEv@Base 4:4.4.95
 _ZN8KateView14shiftWordRightEv@Base 4:4.4.95
 _ZN8KateView14showRecoverBarEv@Base 4:4.5.86
 _ZN8KateView14slotUpdateUndoEv@Base 4:4.4.95
 _ZN8KateView14toggleWWMarkerEv@Base 4:4.4.95
 _ZN8KateView14updateRangesInEN11KTextEditor9Attribute14ActivationTypeE@Base 4:4.4.95
 _ZN8KateView15abortCompletionEv@Base 4:4.4.95
 _ZN8KateView15currentTextLineEv@Base 4:4.4.95
 _ZN8KateView15deleteWordRightEv@Base 4:4.4.95
 _ZN8KateView15enableTextHintsEi@Base 4:4.4.95
 _ZN8KateView15forceCompletionEv@Base 4:4.4.95
 _ZN8KateView15lineEndSelectedERKN11KTextEditor6CursorE@Base 4:4.4.95
 _ZN8KateView15lineHasSelectedEi@Base 4:4.4.95
 _ZN8KateView15lineIsSelectionEi@Base 4:4.4.95
 _ZN8KateView15shiftCursorLeftEv@Base 4:4.4.95
 _ZN8KateView15slotExpandLocalEv@Base 4:4.4.95
 _ZN8KateView15startCompletionERKN11KTextEditor5RangeEPNS0_19CodeCompletionModelE@Base 4:4.4.95
 _ZN8KateView15switchToCmdLineEv@Base 4:4.4.95
 _ZN8KateView15toggleWriteLockEv@Base 4:4.4.95
 _ZN8KateView16changeDictionaryEv@Base 4:4.4.95
 _ZN8KateView16contextMenuEventEP17QContextMenuEvent@Base 4:4.4.95
 _ZN8KateView16disableTextHintsEv@Base 4:4.4.95
 _ZN8KateView16foldingMarkersOnEv@Base 4:4.4.95
 _ZN8KateView16setLineNumbersOnEb@Base 4:4.4.95
 _ZN8KateView16setupCodeFoldingEv@Base 4:4.4.95
 _ZN8KateView16setupConnectionsEv@Base 4:4.4.95
 _ZN8KateView16setupEditActionsEv@Base 4:4.4.95
 _ZN8KateView16shiftCursorRightEv@Base 4:4.4.95
 _ZN8KateView16slotConfigDialogEv@Base 4:4.4.95
 _ZN8KateView16slotSaveCanceledERK7QString@Base 4:4.4.95
 _ZN8KateView16slotTextInsertedEPN11KTextEditor4ViewERKNS0_6CursorERK7QString@Base 4:4.4.95
 _ZN8KateView16staticMetaObjectE@Base 4:4.4.95
 _ZN8KateView16toggleIconBorderEv@Base 4:4.4.95
 _ZN8KateView17brokenSwapFileBarEv@Base 4:4.5.86
 _ZN8KateView17completionAbortedEPN11KTextEditor4ViewE@Base 4:4.4.95
 _ZN8KateView17dynWrapIndicatorsEv@Base 4:4.4.95
 _ZN8KateView17readSessionConfigERK12KConfigGroup@Base 4:4.4.95
 _ZN8KateView17setCursorPositionEN11KTextEditor6CursorE@Base 4:4.4.95
 _ZN8KateView17setScrollBarMarksEb@Base 4:4.4.95
 _ZN8KateView17shiftBottomOfViewEv@Base 4:4.4.95
 _ZN8KateView17slotCollapseLocalEv@Base 4:4.4.95
 _ZN8KateView17slotDropEventPassEP10QDropEvent@Base 4:4.4.95
 _ZN8KateView17toMatchingBracketEv@Base 4:4.4.95
 _ZN8KateView17toggleDynWordWrapEv@Base 4:4.4.95
 _ZN8KateView17toggleViInputModeEv@Base 4:4.4.95
 _ZN8KateView18completionExecutedEPN11KTextEditor4ViewERKNS0_6CursorEPNS0_19CodeCompletionModelERK11QModelIndex@Base 4:4.4.95
 _ZN8KateView18removeSelectedTextEv@Base 4:4.4.95
 _ZN8KateView18setAnnotationModelEPN11KTextEditor15AnnotationModelE@Base 4:4.4.95
 _ZN8KateView18slotExpandToplevelEv@Base 4:4.4.95
 _ZN8KateView18updateViModeBarCmdEv@Base 4:4.4.95
 _ZN8KateView18writeSessionConfigER12KConfigGroup@Base 4:4.4.95
 _ZN8KateView19activateEditActionsEv@Base 4:4.4.95
 _ZN8KateView19annotationActivatedEPN11KTextEditor4ViewEi@Base 4:4.4.95
 _ZN8KateView19delayedUpdateOfViewEv@Base 4:4.4.95
 _ZN8KateView19displayRangeChangedEPS_@Base 4:4.4.95
 _ZN8KateView19setFoldingMarkersOnEb@Base 4:4.4.95
 _ZN8KateView19toggleLineNumbersOnEv@Base 4:4.4.95
 _ZN8KateView19updateFoldingConfigEv@Base 4:4.4.95
 _ZN8KateView19updateViModeBarModeEv@Base 4:4.4.95
#MISSING: 4:4.5.86# _ZN8KateView20addExternalHighlightEPN11KTextEditor10SmartRangeEb@Base 4:4.4.95
 _ZN8KateView20findSelectedForwardsEv@Base 4:4.4.95
 _ZN8KateView20setDynWrapIndicatorsEi@Base 4:4.4.95
 _ZN8KateView20slotReadWriteChangedEv@Base 4:4.4.95
 _ZN8KateView20slotSelectionChangedEv@Base 4:4.4.95
 _ZN8KateView20toggleFoldingMarkersEv@Base 4:4.4.95
 _ZN8KateView20toggleScrollBarMarksEv@Base 4:4.4.95
 _ZN8KateView20updateDocumentConfigEv@Base 4:4.4.95
 _ZN8KateView20updateRendererConfigEv@Base 4:4.4.95
 _ZN8KateView21deactivateEditActionsEv@Base 4:4.4.95
 _ZN8KateView21findSelectedBackwardsEv@Base 4:4.4.95
 _ZN8KateView21getViInputModeManagerEv@Base 4:4.4.95
 _ZN8KateView21hideBrokenSwapFileBarEv@Base 4:4.5.86
 _ZN8KateView21sendCompletionAbortedEv@Base 4:4.4.95
 _ZN8KateView21setBlockSelectionModeEb@Base 4:4.4.95
 _ZN8KateView21showBrokenSwapFileBarEv@Base 4:4.5.86
 _ZN8KateView21userInvokedCompletionEv@Base 4:4.4.95
 _ZN8KateView22aboutToHideContextMenuEv@Base 4:4.4.95
 _ZN8KateView22aboutToShowContextMenuEv@Base 4:4.4.95
 _ZN8KateView22notifyAboutRangeChangeEiib@Base 4:4.4.95
 _ZN8KateView22sendCompletionExecutedERKN11KTextEditor6CursorEPNS0_19CodeCompletionModelERK11QModelIndex@Base 4:4.4.95
 _ZN8KateView22shiftToMatchingBracketEv@Base 4:4.4.95
#MISSING: 4:4.5.86# _ZN8KateView23clearExternalHighlightsEv@Base 4:4.4.95
 _ZN8KateView23ensureCursorColumnValidEv@Base 4:4.4.95
 _ZN8KateView23registerCompletionModelEPN11KTextEditor19CodeCompletionModelE@Base 4:4.4.95
#MISSING: 4:4.5.86# _ZN8KateView23removeExternalHighlightEPN11KTextEditor10SmartRangeE@Base 4:4.4.95
 _ZN8KateView23setCursorPositionVisualERKN11KTextEditor6CursorE@Base 4:4.4.95
 _ZN8KateView23setMouseTrackingEnabledEb@Base 4:4.4.95
 _ZN8KateView23slotDelayedUpdateOfViewEv@Base 4:4.4.95
 _ZN8KateView24toggleBlockSelectionModeEv@Base 4:4.4.95
 _ZN8KateView24toggleOnTheFlySpellCheckEb@Base 4:4.4.95
 _ZN8KateView25setCursorPositionInternalERKN11KTextEditor6CursorEjb@Base 4:4.4.95
 _ZN8KateView25unregisterCompletionModelEPN11KTextEditor19CodeCompletionModelE@Base 4:4.4.95
 _ZN8KateView26notifyMousePositionChangedERKN11KTextEditor6CursorE@Base 4:4.4.95
 _ZN8KateView26setAnnotationBorderVisibleEb@Base 4:4.4.95
 _ZN8KateView29setAutomaticInvocationEnabledEb@Base 4:4.4.95
 _ZN8KateView2upEv@Base 4:4.4.95
 _ZN8KateView31reflectOnTheFlySpellCheckStatusEb@Base 4:4.4.95
 _ZN8KateView32annotationContextMenuAboutToShowEPN11KTextEditor4ViewEP5QMenui@Base 4:4.4.95
 _ZN8KateView32insertTemplateTextImplementationERKN11KTextEditor6CursorERK7QStringRK4QMapIS4_S4_E@Base 4:4.4.95
 _ZN8KateView32insertTemplateTextImplementationERKN11KTextEditor6CursorERK7QStringRK4QMapIS4_S4_EPNS0_14TemplateScriptE@Base 4:4.4.95
 _ZN8KateView33annotationBorderVisibilityChangedEPN11KTextEditor4ViewEb@Base 4:4.4.95
 _ZN8KateView3cutEv@Base 4:4.4.95
 _ZN8KateView3endEv@Base 4:4.4.95
 _ZN8KateView3topEv@Base 4:4.4.95
 _ZN8KateView4downEv@Base 4:4.4.95
 _ZN8KateView4findEv@Base 4:4.4.95
 _ZN8KateView4homeEv@Base 4:4.4.95
 _ZN8KateView5alignEv@Base 4:4.4.95
 _ZN8KateView5clearEv@Base 4:4.4.95
 _ZN8KateView5pasteEv@Base 4:4.4.95
 _ZN8KateView6bottomEv@Base 4:4.4.95
 _ZN8KateView6indentEv@Base 4:4.4.95
 _ZN8KateView6pageUpEv@Base 4:4.4.95
 _ZN8KateView6setEolEi@Base 4:4.4.95
 _ZN8KateView6tagAllEv@Base 4:4.4.95
 _ZN8KateView7commentEv@Base 4:4.4.95
 _ZN8KateView7editEndEiib@Base 4:4.4.95
 _ZN8KateView7gotoBarEv@Base 4:4.4.95
 _ZN8KateView7replaceEv@Base 4:4.4.95
 _ZN8KateView7shiftUpEv@Base 4:4.4.95
 _ZN8KateView7tagLineERKN11KTextEditor6CursorE@Base 4:4.4.95
 _ZN8KateView8blockFixERN11KTextEditor5RangeE@Base 4:4.4.95
 _ZN8KateView8findNextEv@Base 4:4.4.95
 _ZN8KateView8gotoLineEv@Base 4:4.4.95
 _ZN8KateView8killLineEv@Base 4:4.4.95
 _ZN8KateView8pageDownEv@Base 4:4.4.95
 _ZN8KateView8rendererEv@Base 4:4.4.95
 _ZN8KateView8scrollUpEv@Base 4:4.4.95
 _ZN8KateView8shiftEndEv@Base 4:4.4.95
 _ZN8KateView8shiftTopEv@Base 4:4.4.95
 _ZN8KateView8tagLinesEN11KTextEditor5RangeEb@Base 4:4.4.95
 _ZN8KateView8tagLinesEN11KTextEditor6CursorES1_b@Base 4:4.4.95
 _ZN8KateView8tagLinesEiib@Base 4:4.4.95
 _ZN8KateView8tagRangeERKN11KTextEditor5RangeEb@Base 4:4.4.95
 _ZN8KateView8unIndentEv@Base 4:4.4.95
 _ZN8KateView8wordLeftEv@Base 4:4.4.95
 _ZN8KateView9backspaceEv@Base 4:4.4.95
 _ZN8KateView9editStartEv@Base 4:4.4.95
 _ZN8KateView9insertTabEv@Base 4:4.5.86
 _ZN8KateView9joinLinesEv@Base 4:4.4.95
 _ZN8KateView9keyDeleteEv@Base 4:4.4.95
 _ZN8KateView9keyReturnEv@Base 4:4.4.95
 _ZN8KateView9lowercaseEv@Base 4:4.4.95
 _ZN8KateView9searchBarEb@Base 4:4.4.95
 _ZN8KateView9selectAllEv@Base 4:4.4.95
 _ZN8KateView9setAddBomEb@Base 4:4.4.95
 _ZN8KateView9shiftDownEv@Base 4:4.4.95
 _ZN8KateView9shiftHomeEv@Base 4:4.4.95
 _ZN8KateView9topOfViewEv@Base 4:4.4.95
 _ZN8KateView9transposeEv@Base 4:4.4.95
 _ZN8KateView9uncommentEv@Base 4:4.4.95
 _ZN8KateView9uppercaseEv@Base 4:4.4.95
 _ZN8KateView9viModeBarEv@Base 4:4.4.95
 _ZN8KateView9wordRightEv@Base 4:4.4.95
 _ZN8KateViewC1EP12KateDocumentP7QWidget@Base 4:4.4.95
 _ZN8KateViewC2EP12KateDocumentP7QWidget@Base 4:4.4.95
 _ZN8KateViewD0Ev@Base 4:4.4.95
 _ZN8KateViewD1Ev@Base 4:4.4.95
 _ZN8KateViewD2Ev@Base 4:4.4.95
 _ZNK10KateBuffer10metaObjectEv@Base 4:4.4.95
 _ZNK10KateGlobal10metaObjectEv@Base 4:4.4.95
 _ZNK10KateGlobal11commandListEv@Base 4:4.4.95
 _ZNK10KateGlobal11configPagesEv@Base 4:4.4.95
 _ZNK10KateGlobal12queryCommandERK7QString@Base 4:4.4.95
 _ZNK10KateGlobal14configPageIconEi@Base 4:4.4.95
 _ZNK10KateGlobal14configPageNameEi@Base 4:4.4.95
 _ZNK10KateGlobal18configPageFullNameEi@Base 4:4.4.95
 _ZNK10KateGlobal21configDialogSupportedEv@Base 4:4.4.95
 _ZNK10KateGlobal8commandsEv@Base 4:4.4.95
 _ZNK11KTextEditor39CodeCompletionModelControllerInterface429shouldHideItemsWithEqualNamesEv@Base 4:4.5.90
 (optional=templinst)_ZNK12KConfigGroup9readCheckI6QColorEET_PKcRKS2_@Base 4:4.4.95
 (optional=templinst)_ZNK12KConfigGroup9readCheckIbEET_PKcRKS1_@Base 4:4.4.95
 (optional=templinst)_ZNK12KConfigGroup9readEntryI6QColorEET_RK7QStringRKS2_@Base 4:4.4.95
 (optional=templinst)_ZNK12KConfigGroup9readEntryIbEET_PKcRKS1_@Base 4:4.4.95
 (optional=templinst)_ZNK12KConfigGroup9readEntryIiEET_PKcRKS1_@Base 4:4.4.95
 _ZNK12KateDocument10configKeysEv@Base 4:4.4.95
 _ZNK12KateDocument10lineLengthEi@Base 4:4.4.95
 _ZNK12KateDocument10markPixmapEN11KTextEditor13MarkInterface9MarkTypesE@Base 4:4.4.95
 _ZNK12KateDocument10metaObjectEv@Base 4:4.4.95
 _ZNK12KateDocument10wordWrapAtEv@Base 4:4.4.95
 _ZNK12KateDocument11documentEndEv@Base 4:4.4.95
 _ZNK12KateDocument11modeSectionEi@Base 4:4.4.95
 _ZNK12KateDocument11numVisLinesEv@Base 4:4.4.95
 _ZNK12KateDocument11rangeOnLineEN11KTextEditor5RangeEi@Base 4:4.4.95
#MISSING: 4:4.5.86# _ZNK12KateDocument11viewActionsEPN11KTextEditor4ViewE@Base 4:4.4.95
 _ZNK12KateDocument12defaultStyleEN11KTextEditor18HighlightInterface12DefaultStyleE@Base 4:4.4.95
 _ZNK12KateDocument13editableMarksEv@Base 4:4.4.95
 _ZNK12KateDocument13isEditRunningEv@Base 4:4.4.95
 _ZNK12KateDocument14activeKateViewEv@Base 4:4.4.95
#MISSING: 4:4.5.86# _ZNK12KateDocument14viewHighlightsEPN11KTextEditor4ViewE@Base 4:4.4.95
 _ZNK12KateDocument15annotationModelEv@Base 4:4.4.95
#MISSING: 4:4.5.86# _ZNK12KateDocument15currentRevisionEv@Base 4:4.4.95
#MISSING: 4:4.5.86# _ZNK12KateDocument15documentActionsEv@Base 4:4.4.95
 _ZNK12KateDocument15markDescriptionEN11KTextEditor13MarkInterface9MarkTypesE@Base 4:4.4.95
#MISSING: 4:4.5.86# _ZNK12KateDocument15releaseRevisionEi@Base 4:4.4.95
 _ZNK12KateDocument15totalCharactersEv@Base 4:4.4.95
 _ZNK12KateDocument16dictionaryRangesEv@Base 4:4.4.95
 _ZNK12KateDocument16highlightingModeEv@Base 4:4.4.95
 _ZNK12KateDocument17defaultDictionaryEv@Base 4:4.4.95
 _ZNK12KateDocument17highlightingModesEv@Base 4:4.4.95
 _ZNK12KateDocument17lastSavedRevisionEv@Base 4:4.4.95
 _ZNK12KateDocument17reasonedMOHStringEv@Base 4:4.4.95
#MISSING: 4:4.5.86# _ZNK12KateDocument18documentHighlightsEv@Base 4:4.4.95
 _ZNK12KateDocument21pageUpDownMovesCursorEv@Base 4:4.4.95
#MISSING: 4:4.5.86# _ZNK12KateDocument21translateFromRevisionERKN11KTextEditor5RangeE6QFlagsINS0_10SmartRange14InsertBehaviorEE@Base 4:4.4.95
#MISSING: 4:4.5.86# _ZNK12KateDocument21translateFromRevisionERKN11KTextEditor6CursorENS0_11SmartCursor14InsertBehaviorE@Base 4:4.4.95
 _ZNK12KateDocument22supportedSearchOptionsEv@Base 4:4.4.95
 _ZNK12KateDocument23highlightingModeSectionEi@Base 4:4.4.95
 _ZNK12KateDocument23isDataRecoveryAvailableEv@Base 4:4.5.86
 _ZNK12KateDocument25embeddedHighlightingModesEv@Base 4:4.4.95
 _ZNK12KateDocument28dictionaryForMisspelledRangeERKN11KTextEditor5RangeE@Base 4:4.4.95
 _ZNK12KateDocument30isOnTheFlySpellCheckingEnabledEv@Base 4:4.4.95
 _ZNK12KateDocument4lineEi@Base 4:4.4.95
 _ZNK12KateDocument4modeEv@Base 4:4.4.95
 _ZNK12KateDocument4textERKN11KTextEditor5RangeEb@Base 4:4.4.95
 _ZNK12KateDocument4textEv@Base 4:4.4.95
 _ZNK12KateDocument5linesEv@Base 4:4.4.95
 _ZNK12KateDocument5modesEv@Base 4:4.4.95
 _ZNK12KateDocument5viewsEv@Base 4:4.4.95
 _ZNK12KateDocument8encodingEv@Base 4:4.4.95
 _ZNK12KateDocument8revisionEv@Base 4:4.4.95
 _ZNK12KateDocument8variableERK7QString@Base 4:4.4.95
 _ZNK12KateDocument8wordWrapEv@Base 4:4.4.95
 _ZNK12KateDocument9characterERKN11KTextEditor6CursorE@Base 4:4.4.95
 _ZNK12KateDocument9highlightEv@Base 4:4.4.95
 _ZNK12KateDocument9markColorEN11KTextEditor13MarkInterface9MarkTypesE@Base 4:4.4.95
 _ZNK12KateDocument9redoCountEv@Base 4:4.4.95
 _ZNK12KateDocument9textLinesERKN11KTextEditor5RangeEb@Base 4:4.4.95
 _ZNK12KateDocument9undoCountEv@Base 4:4.4.95
 _ZNK13KateSearchBar10metaObjectEv@Base 4:4.4.95
 _ZNK13KateSearchBar13searchOptionsENS_15SearchDirectionE@Base 4:4.4.95
 _ZNK13KateSearchBar13searchPatternEv@Base 4:4.4.95
 _ZNK13KateSearchBar13selectionOnlyEv@Base 4:4.4.95
 _ZNK13KateSearchBar14isPatternValidEv@Base 4:4.4.95
 _ZNK13KateSearchBar18getCapturePatternsERK7QString@Base 4:4.4.95
 _ZNK13KateSearchBar18replacementPatternEv@Base 4:4.4.95
 _ZNK13KateSearchBar7isPowerEv@Base 4:4.4.95
 _ZNK13KateSearchBar9matchCaseEv@Base 4:4.4.95
 _ZNK14KateScriptView10metaObjectEv@Base 4:4.4.95
 _ZNK14KateViewConfig10foldingBarEv@Base 4:4.4.95
 _ZNK14KateViewConfig11dynWordWrapEv@Base 4:4.4.95
 _ZNK14KateViewConfig11lineNumbersEv@Base 4:4.4.95
 _ZNK14KateViewConfig11searchFlagsEv@Base 4:4.4.95
 _ZNK14KateViewConfig11viInputModeEv@Base 4:4.4.95
 _ZNK14KateViewConfig12bookmarkSortEv@Base 4:4.4.95
 _ZNK14KateViewConfig12smartCopyCutEv@Base 4:4.4.95
 _ZNK14KateViewConfig13allowMarkMenuEv@Base 4:4.5.86
 _ZNK14KateViewConfig13scrollPastEndEv@Base 4:4.4.95
 _ZNK14KateViewConfig14maxHistorySizeEv@Base 4:4.4.95
 _ZNK14KateViewConfig14scrollBarMarksEv@Base 4:4.4.95
 _ZNK14KateViewConfig14wordCompletionEv@Base 4:4.4.95
 _ZNK14KateViewConfig15autoCenterLinesEv@Base 4:4.4.95
 _ZNK14KateViewConfig15defaultMarkTypeEv@Base 4:4.4.95
 _ZNK14KateViewConfig19persistentSelectionEv@Base 4:4.4.95
 _ZNK14KateViewConfig20viInputModeStealKeysEv@Base 4:4.4.95
 _ZNK14KateViewConfig21dynWordWrapIndicatorsEv@Base 4:4.4.95
 _ZNK14KateViewConfig22dynWordWrapAlignIndentEv@Base 4:4.4.95
 _ZNK14KateViewConfig24viInputModeHideStatusBarEv@Base 4:4.4.95
 _ZNK14KateViewConfig29automaticCompletionInvocationEv@Base 4:4.4.95
 _ZNK14KateViewConfig31wordCompletionMinimalWordLengthEv@Base 4:4.4.95
 _ZNK14KateViewConfig7iconBarEv@Base 4:4.4.95
 _ZNK15KateUndoManager10metaObjectEv@Base 4:4.4.95
 _ZNK15KateUndoManager9redoCountEv@Base 4:4.4.95
 _ZNK15KateUndoManager9undoCountEv@Base 4:4.4.95
 _ZNK16KateGlobalConfig13fallbackCodecEv@Base 4:4.4.95
 _ZNK16KateGlobalConfig16fallbackEncodingEv@Base 4:4.4.95
 _ZNK18KateDocumentConfig10showSpacesEv@Base 4:4.5.86
 _ZNK18KateDocumentConfig10wordWrapAtEv@Base 4:4.4.95
 _ZNK18KateDocumentConfig10wrapCursorEv@Base 4:4.5.86
 _ZNK18KateDocumentConfig11backupFlagsEv@Base 4:4.4.95
#MISSING: 4:4.5.86# _ZNK18KateDocumentConfig11configFlagsEv@Base 4:4.4.95
 _ZNK18KateDocumentConfig11tabHandlingEv@Base 4:4.4.95
 _ZNK18KateDocumentConfig12autoBracketsEv@Base 4:4.5.86
 _ZNK18KateDocumentConfig12backupPrefixEv@Base 4:4.4.95
 _ZNK18KateDocumentConfig12backupSuffixEv@Base 4:4.4.95
 _ZNK18KateDocumentConfig12removeSpacesEv@Base 4:4.5.86
 _ZNK18KateDocumentConfig13isSetEncodingEv@Base 4:4.4.95
 _ZNK18KateDocumentConfig14replaceTabsDynEv@Base 4:4.5.86
 _ZNK18KateDocumentConfig14swapFileNoSyncEv@Base 4:4.5.86
 _ZNK18KateDocumentConfig15allowSimpleModeEv@Base 4:4.4.95
 _ZNK18KateDocumentConfig15indentationModeEv@Base 4:4.4.95
 _ZNK18KateDocumentConfig15keepExtraSpacesEv@Base 4:4.5.86
 _ZNK18KateDocumentConfig16backspaceIndentsEv@Base 4:4.5.86
 _ZNK18KateDocumentConfig16indentPastedTextEv@Base 4:4.5.86
 _ZNK18KateDocumentConfig16indentationWidthEv@Base 4:4.4.95
 _ZNK18KateDocumentConfig17allowEolDetectionEv@Base 4:4.4.95
 _ZNK18KateDocumentConfig17removeTrailingDynEv@Base 4:4.5.86
 _ZNK18KateDocumentConfig17tabIndentsEnabledEv@Base 4:4.5.86
 _ZNK18KateDocumentConfig18onTheFlySpellCheckEv@Base 4:4.4.95
 _ZNK18KateDocumentConfig20searchDirConfigDepthEv@Base 4:4.4.95
 _ZNK18KateDocumentConfig21pageUpDownMovesCursorEv@Base 4:4.4.95
 _ZNK18KateDocumentConfig3bomEv@Base 4:4.4.95
 _ZNK18KateDocumentConfig3eolEv@Base 4:4.4.95
 _ZNK18KateDocumentConfig3ovrEv@Base 4:4.5.86
 _ZNK18KateDocumentConfig5codecEv@Base 4:4.4.95
 _ZNK18KateDocumentConfig8encodingEv@Base 4:4.4.95
 _ZNK18KateDocumentConfig8showTabsEv@Base 4:4.5.86
 _ZNK18KateDocumentConfig8tabWidthEv@Base 4:4.4.95
 _ZNK18KateDocumentConfig8wordWrapEv@Base 4:4.4.95
 _ZNK18KateDocumentConfig9smartHomeEv@Base 4:4.5.86
 _ZNK18KateScriptDocument10metaObjectEv@Base 4:4.4.95
 _ZNK19KateCodeFoldingTree10metaObjectEv@Base 4:4.4.95
 _ZNK19KateCompletionModel10metaObjectEv@Base 4:4.4.95
 _ZNK19KateCompletionModel11columnCountERK11QModelIndex@Base 4:4.4.95
 _ZNK19KateCompletionModel11hasChildrenERK11QModelIndex@Base 4:4.4.95
 _ZNK19KateCompletionModel11indexForRowEPNS_5GroupEi@Base 4:4.4.95
 _ZNK19KateCompletionModel11indexIsItemERK11QModelIndex@Base 4:4.4.95
 _ZNK19KateCompletionModel11mapToSourceERK11QModelIndex@Base 4:4.4.95
 _ZNK19KateCompletionModel12columnMergesEv@Base 4:4.4.95
 _ZNK19KateCompletionModel12commonPrefixE11QModelIndex@Base 4:4.4.95
 _ZNK19KateCompletionModel12modelRowPairERK11QModelIndex@Base 4:4.4.95
 _ZNK19KateCompletionModel13groupForIndexERK11QModelIndex@Base 4:4.4.95
 _ZNK19KateCompletionModel13indexForGroupEPNS_5GroupE@Base 4:4.4.95
 _ZNK19KateCompletionModel13mapFromSourceERK11QModelIndex@Base 4:4.4.95
 _ZNK19KateCompletionModel14groupingMethodEv@Base 4:4.4.95
 _ZNK19KateCompletionModel15translateColumnEi@Base 4:4.4.95
 _ZNK19KateCompletionModel16completionModelsEv@Base 4:4.4.95
 _ZNK19KateCompletionModel16filterAttributesEv@Base 4:4.4.95
 _ZNK19KateCompletionModel16isSortingEnabledEv@Base 4:4.4.95
 _ZNK19KateCompletionModel17currentCompletionEPN11KTextEditor19CodeCompletionModelE@Base 4:4.4.95
 _ZNK19KateCompletionModel17filterByAttributeEv@Base 4:4.4.95
 _ZNK19KateCompletionModel17filteredItemCountEv@Base 4:4.4.95
 _ZNK19KateCompletionModel17isGroupingEnabledEv@Base 4:4.4.95
 _ZNK19KateCompletionModel18accessIncludeConstEv@Base 4:4.4.95
 _ZNK19KateCompletionModel18groupingAttributesEi@Base 4:4.4.95
 _ZNK19KateCompletionModel18hasCompletionModelEv@Base 4:4.4.95
 _ZNK19KateCompletionModel18isFilteringEnabledEv@Base 4:4.4.95
 _ZNK19KateCompletionModel19accessIncludeStaticEv@Base 4:4.4.95
 _ZNK19KateCompletionModel19contextMatchQualityERK11QModelIndex@Base 4:4.4.95
 _ZNK19KateCompletionModel19contextMatchQualityERK5QPairIPN11KTextEditor19CodeCompletionModelE11QModelIndexE@Base 4:4.4.95
 _ZNK19KateCompletionModel20commonPrefixInternalERK7QString@Base 4:4.4.95
 _ZNK19KateCompletionModel20matchCaseSensitivityEv@Base 4:4.4.95
 _ZNK19KateCompletionModel21isSortingAlphabeticalEv@Base 4:4.4.95
 _ZNK19KateCompletionModel22isColumnMergingEnabledEv@Base 4:4.4.95
 _ZNK19KateCompletionModel22sortingCaseSensitivityEv@Base 4:4.4.95
 _ZNK19KateCompletionModel23accessIncludeSignalSlotEv@Base 4:4.4.95
 _ZNK19KateCompletionModel23maximumInheritanceDepthEv@Base 4:4.4.95
 _ZNK19KateCompletionModel24filterContextMatchesOnlyEv@Base 4:4.4.95
 _ZNK19KateCompletionModel27isSortingByInheritanceDepthEv@Base 4:4.4.95
 _ZNK19KateCompletionModel29shouldMatchHideCompletionListEv@Base 4:4.4.95
 _ZNK19KateCompletionModel4Item10isFilteredEv@Base 4:4.4.95
 _ZNK19KateCompletionModel4Item10isMatchingEv@Base 4:4.4.95
 _ZNK19KateCompletionModel4Item21completionSortingNameEv@Base 4:4.4.95
 _ZNK19KateCompletionModel4Item7isValidEv@Base 4:4.4.95
 _ZNK19KateCompletionModel4Item9isVisibleEv@Base 4:4.4.95
 _ZNK19KateCompletionModel4Item9sourceRowEv@Base 4:4.4.95
 _ZNK19KateCompletionModel4ItemltERKS0_@Base 4:4.4.95
 _ZNK19KateCompletionModel4dataERK11QModelIndexi@Base 4:4.4.95
 _ZNK19KateCompletionModel4viewEv@Base 4:4.4.95
 _ZNK19KateCompletionModel5Group11orderBeforeEPS0_@Base 4:4.4.95
 _ZNK19KateCompletionModel5Group11orderNumberEv@Base 4:4.4.95
 _ZNK19KateCompletionModel5flagsERK11QModelIndex@Base 4:4.4.95
 _ZNK19KateCompletionModel5indexEiiRK11QModelIndex@Base 4:4.4.95
 _ZNK19KateCompletionModel6parentERK11QModelIndex@Base 4:4.4.95
 _ZNK19KateCompletionModel6widgetEv@Base 4:4.4.95
 _ZNK19KateCompletionModel8hasIndexEiiRK11QModelIndex@Base 4:4.4.95
 _ZNK19KateCompletionModel8rowCountERK11QModelIndex@Base 4:4.4.95
 _ZNK19KateCompletionModel8treeViewEv@Base 4:4.4.95
 _ZNK19KateCompletionModel9countBitsEi@Base 4:4.4.95
 _ZNK19KateCompletionModel9hasGroupsEv@Base 4:4.4.95
 _ZNK20KateCompletionWidget10metaObjectEv@Base 4:4.4.95
 _ZNK20KateCompletionWidget13hadNavigationEv@Base 4:4.4.95
 _ZNK20KateCompletionWidget13selectedIndexEv@Base 4:4.4.95
 _ZNK20KateCompletionWidget15completionRangeEPN11KTextEditor19CodeCompletionModelE@Base 4:4.4.95
 _ZNK20KateCompletionWidget16argumentHintTreeEv@Base 4:4.4.95
 _ZNK20KateCompletionWidget16completionRangesEv@Base 4:4.4.95
 _ZNK20KateCompletionWidget17argumentHintModelEv@Base 4:4.4.95
 _ZNK20KateCompletionWidget18isCompletionActiveEv@Base 4:4.4.95
 _ZNK20KateCompletionWidget20canExpandCurrentItemEv@Base 4:4.4.95
 _ZNK20KateCompletionWidget22canCollapseCurrentItemEv@Base 4:4.4.95
 _ZNK20KateCompletionWidget24automaticInvocationDelayEv@Base 4:4.4.95
 _ZNK20KateCompletionWidget4viewEv@Base 4:4.4.95
 _ZNK20KateCompletionWidget5modelEv@Base 4:4.4.95
 _ZNK20KateCompletionWidget8treeViewEv@Base 4:4.4.95
 _ZNK4Kate10TextBuffer10debugPrintERK7QString@Base 4:4.4.95
 _ZNK4Kate10TextBuffer10metaObjectEv@Base 4:4.4.95
 _ZNK4Kate10TextBuffer12blockForLineEi@Base 4:4.4.95
 _ZNK4Kate10TextBuffer13rangesForLineEiPN11KTextEditor4ViewEb@Base 4:4.4.95
 _ZNK4Kate10TextBuffer4lineEi@Base 4:4.4.95
 _ZNK4Kate10TextBuffer4textEv@Base 4:4.4.95
 _ZNK4Kate10TextCursor4lineEv@Base 4:4.4.95
 _ZNK4Kate10TextCursor5rangeEv@Base 4:4.4.95
 _ZNK4Kate10TextCursor8documentEv@Base 4:4.4.95
 _ZNK4Kate11TextHistory5Entry15transformCursorERiS2_b@Base 4:4.4.95
 _ZNK4Kate11TextHistory5Entry22reverseTransformCursorERiS2_b@Base 4:4.5.2
 _ZNK4Kate11TextHistory8revisionEv@Base 4:4.4.95
 _ZNK4Kate12TextLineData11indentDepthEi@Base 4:4.4.95
 _ZNK4Kate12TextLineData13virtualLengthEi@Base 4:4.4.95
 _ZNK4Kate12TextLineData15toVirtualColumnEii@Base 4:4.4.95
 _ZNK4Kate12TextLineData16nextNonSpaceCharEi@Base 4:4.4.95
 _ZNK4Kate12TextLineData17fromVirtualColumnEii@Base 4:4.4.95
 _ZNK4Kate12TextLineData17leadingWhitespaceEv@Base 4:4.4.95
 _ZNK4Kate12TextLineData20previousNonSpaceCharEi@Base 4:4.4.95
 _ZNK4Kate12TextLineData8lastCharEv@Base 4:4.4.95
 _ZNK4Kate12TextLineData9firstCharEv@Base 4:4.4.95
 _ZNK4Kate12TextLineData9matchesAtEiRK7QString@Base 4:4.4.95
 _ZNK4Kate8SwapFile10metaObjectEv@Base 4:4.5.86
 _ZNK4Kate8SwapFile13shouldRecoverEv@Base 4:4.5.86
 _ZNK4Kate9TextBlock10debugPrintEi@Base 4:4.4.95
 _ZNK4Kate9TextBlock4lineEi@Base 4:4.4.95
 _ZNK4Kate9TextBlock4textER7QString@Base 4:4.4.95
 _ZNK4Kate9TextRange15insertBehaviorsEv@Base 4:4.4.95
 _ZNK4Kate9TextRange8documentEv@Base 4:4.4.95
 _ZNK7KateCmd11commandListEv@Base 4:4.4.95
 _ZNK7KateCmd11fromHistoryEi@Base 4:4.4.95
 _ZNK7KateCmd12queryCommandERK7QString@Base 4:4.4.95
 _ZNK7KateCmd8commandsEv@Base 4:4.4.95
 _ZNK8KateView10configKeysEv@Base 4:4.4.95
 _ZNK8KateView10metaObjectEv@Base 4:4.4.95
 _ZNK8KateView10topViewBarEv@Base 4:4.5.86
 _ZNK8KateView10wrapCursorEv@Base 4:4.4.95
 _ZNK8KateView11contextMenuEv@Base 4:4.4.95
 _ZNK8KateView11viInputModeEv@Base 4:4.4.95
 _ZNK8KateView13bottomViewBarEv@Base 4:4.5.86
 _ZNK8KateView13selectionTextEv@Base 4:4.4.95
 _ZNK8KateView14cursorPositionEv@Base 4:4.4.95
 _ZNK8KateView14selectionRangeEv@Base 4:4.4.95
 _ZNK8KateView15annotationModelEv@Base 4:4.4.95
 _ZNK8KateView15isOverwriteModeEv@Base 4:4.4.95
 _ZNK8KateView16completionWidgetEv@Base 4:4.4.95
 _ZNK8KateView16getCurrentViModeEv@Base 4:4.4.95
 _ZNK8KateView18blockSelectionModeEv@Base 4:4.4.95
 _ZNK8KateView18cursorToCoordinateERKN11KTextEditor6CursorE@Base 4:4.4.95
 _ZNK8KateView18defaultContextMenuEP5QMenu@Base 4:4.4.95
#MISSING: 4:4.5.86# _ZNK8KateView18externalHighlightsEv@Base 4:4.4.95
 _ZNK8KateView18isCompletionActiveEv@Base 4:4.4.95
 _ZNK8KateView19coordinatesToCursorERK6QPoint@Base 4:4.4.95
 _ZNK8KateView19virtualCursorColumnEv@Base 4:4.4.95
 _ZNK8KateView20mouseTrackingEnabledEv@Base 4:4.4.95
 _ZNK8KateView20viInputModeStealKeysEv@Base 4:4.4.95
 _ZNK8KateView21cursorPositionVirtualEv@Base 4:4.4.95
 _ZNK8KateView25cursorPositionCoordinatesEv@Base 4:4.4.95
 _ZNK8KateView25isAnnotationBorderVisibleEv@Base 4:4.4.95
 _ZNK8KateView28isAutomaticInvocationEnabledEv@Base 4:4.4.95
 _ZNK8KateView4copyEv@Base 4:4.4.95
 _ZNK8KateView6getEolEv@Base 4:4.4.95
#MISSING: 4:4.5.86# _ZNK8KateView7viewBarEv@Base 4:4.4.95
 _ZNK8KateView8documentEv@Base 4:4.4.95
 _ZNK8KateView8viewModeEv@Base 4:4.4.95
 _ZNK8KateView9selectionEv@Base 4:4.4.95
 _ZTI10KateBuffer@Base 4:4.4.95
 _ZTI10KateGlobal@Base 4:4.4.95
 _ZTI12KateDocument@Base 4:4.4.95
 _ZTI13KateSearchBar@Base 4:4.4.95
 _ZTI14KateScriptView@Base 4:4.4.95
 _ZTI14KateViewConfig@Base 4:4.4.95
 _ZTI15KateUndoManager@Base 4:4.4.95
 _ZTI16KateGlobalConfig@Base 4:4.4.95
 _ZTI18KateDocumentConfig@Base 4:4.4.95
 _ZTI18KateScriptDocument@Base 4:4.4.95
 _ZTI19KateCodeFoldingTree@Base 4:4.4.95
 _ZTI19KateCompletionModel@Base 4:4.4.95
 _ZTI20KateCompletionWidget@Base 4:4.4.95
 _ZTI8KateView@Base 4:4.4.95
 _ZTIN11KTextEditor12RangeCommandE@Base 4:4.4.95
 _ZTIN11KTextEditor16CommandExtensionE@Base 4:4.4.95
 _ZTIN11KTextEditor16CommandInterfaceE@Base 4:4.4.95
 _ZTIN11KTextEditor19AnnotationInterfaceE@Base 4:4.4.95
 _ZTIN11KTextEditor23AnnotationViewInterfaceE@Base 4:4.4.95
 _ZTIN11KTextEditor39CodeCompletionModelControllerInterface4E@Base 4:4.5.90
 _ZTIN11KTextEditor7CommandE@Base 4:4.4.95
 _ZTIN4Kate10TextBufferE@Base 4:4.4.95
 _ZTIN4Kate10TextCursorE@Base 4:4.4.95
 _ZTIN4Kate8SwapFileE@Base 4:4.5.86
 _ZTIN4Kate9TextRangeE@Base 4:4.4.95
 _ZTS10KateBuffer@Base 4:4.4.95
 _ZTS10KateGlobal@Base 4:4.4.95
 _ZTS12KateDocument@Base 4:4.4.95
 _ZTS13KateSearchBar@Base 4:4.4.95
 _ZTS14KateScriptView@Base 4:4.4.95
 _ZTS14KateViewConfig@Base 4:4.4.95
 _ZTS15KateUndoManager@Base 4:4.4.95
 _ZTS16KateGlobalConfig@Base 4:4.4.95
 _ZTS18KateDocumentConfig@Base 4:4.4.95
 _ZTS18KateScriptDocument@Base 4:4.4.95
 _ZTS19KateCodeFoldingTree@Base 4:4.4.95
 _ZTS19KateCompletionModel@Base 4:4.4.95
 _ZTS20KateCompletionWidget@Base 4:4.4.95
 _ZTS8KateView@Base 4:4.4.95
 _ZTSN11KTextEditor12RangeCommandE@Base 4:4.4.95
 _ZTSN11KTextEditor16CommandExtensionE@Base 4:4.4.95
 _ZTSN11KTextEditor16CommandInterfaceE@Base 4:4.4.95
 _ZTSN11KTextEditor19AnnotationInterfaceE@Base 4:4.4.95
 _ZTSN11KTextEditor23AnnotationViewInterfaceE@Base 4:4.4.95
 _ZTSN11KTextEditor39CodeCompletionModelControllerInterface4E@Base 4:4.5.90
 _ZTSN11KTextEditor7CommandE@Base 4:4.4.95
 _ZTSN4Kate10TextBufferE@Base 4:4.4.95
 _ZTSN4Kate10TextCursorE@Base 4:4.4.95
 _ZTSN4Kate8SwapFileE@Base 4:4.5.86
 _ZTSN4Kate9TextRangeE@Base 4:4.4.95
 _ZTT12KateDocument@Base 4:4.4.95
 _ZTV10KateBuffer@Base 4:4.4.95
 _ZTV10KateGlobal@Base 4:4.4.95
 _ZTV12KateDocument@Base 4:4.4.95
 _ZTV13KateSearchBar@Base 4:4.4.95
 _ZTV14KateScriptView@Base 4:4.4.95
 _ZTV14KateViewConfig@Base 4:4.4.95
 _ZTV15KateUndoManager@Base 4:4.4.95
 _ZTV16KateGlobalConfig@Base 4:4.4.95
 _ZTV18KateDocumentConfig@Base 4:4.4.95
 _ZTV18KateScriptDocument@Base 4:4.4.95
 _ZTV19KateCodeFoldingTree@Base 4:4.4.95
 _ZTV19KateCompletionModel@Base 4:4.4.95
 _ZTV20KateCompletionWidget@Base 4:4.4.95
 _ZTV8KateView@Base 4:4.4.95
 _ZTVN11KTextEditor12RangeCommandE@Base 4:4.4.95
 _ZTVN11KTextEditor16CommandExtensionE@Base 4:4.4.95
 _ZTVN11KTextEditor16CommandInterfaceE@Base 4:4.4.95
 _ZTVN11KTextEditor19AnnotationInterfaceE@Base 4:4.4.95
 _ZTVN11KTextEditor23AnnotationViewInterfaceE@Base 4:4.4.95
 _ZTVN11KTextEditor39CodeCompletionModelControllerInterface4E@Base 4:4.5.90
 _ZTVN11KTextEditor7CommandE@Base 4:4.4.95
 _ZTVN4Kate10TextBufferE@Base 4:4.4.95
 _ZTVN4Kate10TextCursorE@Base 4:4.4.95
 _ZTVN4Kate8SwapFileE@Base 4:4.5.86
 _ZTVN4Kate9TextRangeE@Base 4:4.4.95
 (c++)"construction vtable for KParts::Part-in-KateDocument@Base" 4:4.4.95
 (c++)"construction vtable for KParts::PartBase-in-KateDocument@Base" 4:4.4.95
 (c++)"construction vtable for KParts::ReadOnlyPart-in-KateDocument@Base" 4:4.4.95
 (c++)"construction vtable for KParts::ReadWritePart-in-KateDocument@Base" 4:4.4.95
 (c++)"construction vtable for KTextEditor::Document-in-KateDocument@Base" 4:4.4.95
 (c++)"non-virtual thunk to KateCompletionWidget::~KateCompletionWidget()@Base" 4:4.4.95
#MISSING: 4:4.5.86# (c++)"non-virtual thunk to KateDocument::addActionsToDocument(KTextEditor::SmartRange*)@Base" 4:4.4.95
#MISSING: 4:4.5.86# (c++)"non-virtual thunk to KateDocument::addActionsToView(KTextEditor::View*, KTextEditor::SmartRange*)@Base" 4:4.4.95
#MISSING: 4:4.5.86# (c++)"non-virtual thunk to KateDocument::addHighlightToDocument(KTextEditor::SmartRange*, bool)@Base" 4:4.4.95
#MISSING: 4:4.5.86# (c++)"non-virtual thunk to KateDocument::addHighlightToView(KTextEditor::View*, KTextEditor::SmartRange*, bool)@Base" 4:4.4.95
 (c++)"non-virtual thunk to KateDocument::addMark(int, unsigned int)@Base" 4:4.4.95
 (c++)"non-virtual thunk to KateDocument::annotationModel() const@Base" 4:4.4.95
#MISSING: 4:4.5.86# (c++)"non-virtual thunk to KateDocument::attributeDynamic(KSharedPtr<KTextEditor::Attribute>)@Base" 4:4.4.95
#MISSING: 4:4.5.86# (c++)"non-virtual thunk to KateDocument::attributeNotDynamic(KSharedPtr<KTextEditor::Attribute>)@Base" 4:4.4.95
#MISSING: 4:4.5.86# (c++)"non-virtual thunk to KateDocument::clearDocumentActions()@Base" 4:4.4.95
#MISSING: 4:4.5.86# (c++)"non-virtual thunk to KateDocument::clearDocumentHighlights()@Base" 4:4.4.95
 (c++)"non-virtual thunk to KateDocument::clearMark(int)@Base" 4:4.4.95
 (c++)"non-virtual thunk to KateDocument::clearMarks()@Base" 4:4.4.95
#MISSING: 4:4.5.86# (c++)"non-virtual thunk to KateDocument::clearSmartInterface()@Base" 4:4.4.95
#MISSING: 4:4.5.86# (c++)"non-virtual thunk to KateDocument::clearViewActions(KTextEditor::View*)@Base" 4:4.4.95
#MISSING: 4:4.5.86# (c++)"non-virtual thunk to KateDocument::clearViewHighlights(KTextEditor::View*)@Base" 4:4.4.95
 (c++)"non-virtual thunk to KateDocument::configKeys() const@Base" 4:4.4.95
 (c++)"non-virtual thunk to KateDocument::configValue(QString const&)@Base" 4:4.4.95
#MISSING: 4:4.5.86# (c++)"non-virtual thunk to KateDocument::currentRevision() const@Base" 4:4.4.95
 (c++)"non-virtual thunk to KateDocument::defaultStyle(KTextEditor::HighlightInterface::DefaultStyle) const@Base" 4:4.4.95
#MISSING: 4:4.5.86# (c++)"non-virtual thunk to KateDocument::deleteCursors()@Base" 4:4.4.95
#MISSING: 4:4.5.86# (c++)"non-virtual thunk to KateDocument::deleteRanges()@Base" 4:4.4.95
 (c++)"non-virtual thunk to KateDocument::discardDataRecovery()@Base" 4:4.5.86
#MISSING: 4:4.5.86# (c++)"non-virtual thunk to KateDocument::documentActions() const@Base" 4:4.4.95
#MISSING: 4:4.5.86# (c++)"non-virtual thunk to KateDocument::documentHighlights() const@Base" 4:4.4.95
 (c++)"non-virtual thunk to KateDocument::editableMarks() const@Base" 4:4.4.95
 (c++)"non-virtual thunk to KateDocument::embeddedHighlightingModes() const@Base" 4:4.4.95
 (c++)"non-virtual thunk to KateDocument::highlightingModeAt(KTextEditor::Cursor const&)@Base" 4:4.4.95
 (c++)"non-virtual thunk to KateDocument::isDataRecoveryAvailable() const@Base" 4:4.5.86
 (c++)"non-virtual thunk to KateDocument::lastSavedRevision() const@Base" 4:4.4.95
 (c++)"non-virtual thunk to KateDocument::lineAttributes(unsigned int)@Base" 4:4.4.95
 (c++)"non-virtual thunk to KateDocument::lockRevision(long long)@Base" 4:4.4.95
 (c++)"non-virtual thunk to KateDocument::mark(int)@Base" 4:4.4.95
 (c++)"non-virtual thunk to KateDocument::markChanged(KTextEditor::Document*, KTextEditor::Mark, KTextEditor::MarkInterface::MarkChangeAction)@Base" 4:4.4.95
 (c++)"non-virtual thunk to KateDocument::markDescription(KTextEditor::MarkInterface::MarkTypes) const@Base" 4:4.4.95
 (c++)"non-virtual thunk to KateDocument::markPixmap(KTextEditor::MarkInterface::MarkTypes) const@Base" 4:4.4.95
 (c++)"non-virtual thunk to KateDocument::marks()@Base" 4:4.4.95
 (c++)"non-virtual thunk to KateDocument::marksChanged(KTextEditor::Document*)@Base" 4:4.4.95
 (c++)"non-virtual thunk to KateDocument::modifiedOnDisk(KTextEditor::Document*, bool, KTextEditor::ModificationInterface::ModifiedOnDiskReason)@Base" 4:4.4.95
 (c++)"non-virtual thunk to KateDocument::newMovingCursor(KTextEditor::Cursor const&, KTextEditor::MovingCursor::InsertBehavior)@Base" 4:4.4.95
 (c++)"non-virtual thunk to KateDocument::newMovingRange(KTextEditor::Range const&, QFlags<KTextEditor::MovingRange::InsertBehavior>, KTextEditor::MovingRange::EmptyBehavior)@Base" 4:4.4.95
#MISSING: 4:4.5.86# (c++)"non-virtual thunk to KateDocument::newSmartCursor(KTextEditor::Cursor const&, KTextEditor::SmartCursor::InsertBehavior)@Base" 4:4.4.95
#MISSING: 4:4.5.86# (c++)"non-virtual thunk to KateDocument::newSmartRange(KTextEditor::Range const&, KTextEditor::SmartRange*, QFlags<KTextEditor::SmartRange::InsertBehavior>)@Base" 4:4.4.95
#MISSING: 4:4.5.86# (c++)"non-virtual thunk to KateDocument::newSmartRange(KTextEditor::SmartCursor*, KTextEditor::SmartCursor*, KTextEditor::SmartRange*, QFlags<KTextEditor::SmartRange::InsertBehavior>)@Base" 4:4.4.95
#MISSING: 4:4.5.86# (c++)"non-virtual thunk to KateDocument::rangeDeleted(KTextEditor::SmartRange*)@Base" 4:4.4.95
 (c++)"non-virtual thunk to KateDocument::rangeEmpty(KTextEditor::MovingRange*)@Base" 4:4.4.95
 (c++)"non-virtual thunk to KateDocument::rangeInvalid(KTextEditor::MovingRange*)@Base" 4:4.4.95
 (c++)"non-virtual thunk to KateDocument::readParameterizedSessionConfig(KConfigGroup const&, unsigned long)@Base" 4:4.4.95
 (c++)"non-virtual thunk to KateDocument::readSessionConfig(KConfigGroup const&)@Base" 4:4.4.95
 (c++)"non-virtual thunk to KateDocument::recoverData()@Base" 4:4.5.86
#MISSING: 4:4.5.86# (c++)"non-virtual thunk to KateDocument::releaseRevision(int) const@Base" 4:4.4.95
#MISSING: 4:4.5.86# (c++)"non-virtual thunk to KateDocument::removeActionsFromDocument(KTextEditor::SmartRange*)@Base" 4:4.4.95
#MISSING: 4:4.5.86# (c++)"non-virtual thunk to KateDocument::removeActionsFromView(KTextEditor::View*, KTextEditor::SmartRange*)@Base" 4:4.4.95
#MISSING: 4:4.5.86# (c++)"non-virtual thunk to KateDocument::removeHighlightFromDocument(KTextEditor::SmartRange*)@Base" 4:4.4.95
#MISSING: 4:4.5.86# (c++)"non-virtual thunk to KateDocument::removeHighlightFromView(KTextEditor::View*, KTextEditor::SmartRange*)@Base" 4:4.4.95
 (c++)"non-virtual thunk to KateDocument::removeMark(int, unsigned int)@Base" 4:4.4.95
 (c++)"non-virtual thunk to KateDocument::revision() const@Base" 4:4.4.95
 (c++)"non-virtual thunk to KateDocument::searchText(KTextEditor::Range const&, QString const&, QFlags<KTextEditor::Search::SearchOptionsEnum>)@Base" 4:4.4.95
 (c++)"non-virtual thunk to KateDocument::setAnnotationModel(KTextEditor::AnnotationModel*)@Base" 4:4.4.95
 (c++)"non-virtual thunk to KateDocument::setConfigValue(QString const&, QVariant const&)@Base" 4:4.4.95
 (c++)"non-virtual thunk to KateDocument::setEditableMarks(unsigned int)@Base" 4:4.4.95
 (c++)"non-virtual thunk to KateDocument::setMark(int, unsigned int)@Base" 4:4.4.95
 (c++)"non-virtual thunk to KateDocument::setMarkDescription(KTextEditor::MarkInterface::MarkTypes, QString const&)@Base" 4:4.4.95
 (c++)"non-virtual thunk to KateDocument::setMarkPixmap(KTextEditor::MarkInterface::MarkTypes, QPixmap const&)@Base" 4:4.4.95
 (c++)"non-virtual thunk to KateDocument::setModifiedOnDisk(KTextEditor::ModificationInterface::ModifiedOnDiskReason)@Base" 4:4.4.95
 (c++)"non-virtual thunk to KateDocument::setModifiedOnDiskWarning(bool)@Base" 4:4.4.95
 (c++)"non-virtual thunk to KateDocument::slotModifiedOnDisk(KTextEditor::View*)@Base" 4:4.4.95
 (c++)"non-virtual thunk to KateDocument::supportedSearchOptions() const@Base" 4:4.4.95
 (c++)"non-virtual thunk to KateDocument::transformCursor(KTextEditor::Cursor&, KTextEditor::MovingCursor::InsertBehavior, long long, long long)@Base" 4:4.4.95
 (c++)"non-virtual thunk to KateDocument::transformCursor(int&, int&, KTextEditor::MovingCursor::InsertBehavior, long long, long long)@Base" 4:4.4.95
 (c++)"non-virtual thunk to KateDocument::transformRange(KTextEditor::Range&, QFlags<KTextEditor::MovingRange::InsertBehavior>, KTextEditor::MovingRange::EmptyBehavior, long long, long long)@Base" 4:4.4.95
#MISSING: 4:4.5.86# (c++)"non-virtual thunk to KateDocument::translateFromRevision(KTextEditor::Cursor const&, KTextEditor::SmartCursor::InsertBehavior) const@Base" 4:4.4.95
#MISSING: 4:4.5.86# (c++)"non-virtual thunk to KateDocument::translateFromRevision(KTextEditor::Range const&, QFlags<KTextEditor::SmartRange::InsertBehavior>) const@Base" 4:4.4.95
#MISSING: 4:4.5.86# (c++)"non-virtual thunk to KateDocument::unbindSmartRange(KTextEditor::SmartRange*)@Base" 4:4.4.95
 (c++)"non-virtual thunk to KateDocument::unlockRevision(long long)@Base" 4:4.4.95
#MISSING: 4:4.5.86# (c++)"non-virtual thunk to KateDocument::useRevision(int)@Base" 4:4.4.95
 (c++)"non-virtual thunk to KateDocument::variable(QString const&) const@Base" 4:4.4.95
 (c++)"non-virtual thunk to KateDocument::variableChanged(KTextEditor::Document*, QString const&, QString const&)@Base" 4:4.4.95
#MISSING: 4:4.5.86# (c++)"non-virtual thunk to KateDocument::viewActions(KTextEditor::View*) const@Base" 4:4.4.95
#MISSING: 4:4.5.86# (c++)"non-virtual thunk to KateDocument::viewHighlights(KTextEditor::View*) const@Base" 4:4.4.95
 (c++)"non-virtual thunk to KateDocument::writeParameterizedSessionConfig(KConfigGroup&, unsigned long)@Base" 4:4.4.95
 (c++)"non-virtual thunk to KateDocument::writeSessionConfig(KConfigGroup&)@Base" 4:4.4.95
 (c++)"non-virtual thunk to KateDocument::~KateDocument()@Base" 4:4.4.95
 (c++)"non-virtual thunk to KateGlobal::commandList() const@Base" 4:4.4.95
 (c++)"non-virtual thunk to KateGlobal::commands() const@Base" 4:4.4.95
 (c++)"non-virtual thunk to KateGlobal::container()@Base" 4:4.4.95
 (c++)"non-virtual thunk to KateGlobal::queryCommand(QString const&) const@Base" 4:4.4.95
 (c++)"non-virtual thunk to KateGlobal::registerCommand(KTextEditor::Command*)@Base" 4:4.4.95
 (c++)"non-virtual thunk to KateGlobal::registerTemplateScript(QObject*, QString const&)@Base" 4:4.4.95
 (c++)"non-virtual thunk to KateGlobal::setContainer(QObject*)@Base" 4:4.4.95
 (c++)"non-virtual thunk to KateGlobal::unregisterCommand(KTextEditor::Command*)@Base" 4:4.4.95
 (c++)"non-virtual thunk to KateGlobal::unregisterTemplateScript(KTextEditor::TemplateScript*)@Base" 4:4.4.95
 (c++)"non-virtual thunk to KateGlobal::~KateGlobal()@Base" 4:4.4.95
 (c++)"non-virtual thunk to KateSearchBar::~KateSearchBar()@Base" 4:4.4.95
 (c++)"non-virtual thunk to KateView::abortCompletion()@Base" 4:4.4.95
 (c++)"non-virtual thunk to KateView::annotationActivated(KTextEditor::View*, int)@Base" 4:4.4.95
 (c++)"non-virtual thunk to KateView::annotationBorderVisibilityChanged(KTextEditor::View*, bool)@Base" 4:4.4.95
 (c++)"non-virtual thunk to KateView::annotationContextMenuAboutToShow(KTextEditor::View*, QMenu*, int)@Base" 4:4.4.95
 (c++)"non-virtual thunk to KateView::annotationModel() const@Base" 4:4.4.95
 (c++)"non-virtual thunk to KateView::configKeys() const@Base" 4:4.4.95
 (c++)"non-virtual thunk to KateView::configValue(QString const&)@Base" 4:4.4.95
 (c++)"non-virtual thunk to KateView::coordinatesToCursor(QPoint const&) const@Base" 4:4.4.95
 (c++)"non-virtual thunk to KateView::disableTextHints()@Base" 4:4.4.95
 (c++)"non-virtual thunk to KateView::enableTextHints(int)@Base" 4:4.4.95
 (c++)"non-virtual thunk to KateView::forceCompletion()@Base" 4:4.4.95
 (c++)"non-virtual thunk to KateView::insertTemplateTextImplementation(KTextEditor::Cursor const&, QString const&, QMap<QString, QString> const&)@Base" 4:4.4.95
 (c++)"non-virtual thunk to KateView::insertTemplateTextImplementation(KTextEditor::Cursor const&, QString const&, QMap<QString, QString> const&, KTextEditor::TemplateScript*)@Base" 4:4.4.95
 (c++)"non-virtual thunk to KateView::isAnnotationBorderVisible() const@Base" 4:4.4.95
 (c++)"non-virtual thunk to KateView::isAutomaticInvocationEnabled() const@Base" 4:4.4.95
 (c++)"non-virtual thunk to KateView::isCompletionActive() const@Base" 4:4.4.95
 (c++)"non-virtual thunk to KateView::needTextHint(KTextEditor::Cursor const&, QString&)@Base" 4:4.4.95
#MISSING: 4:4.5.86# (c++)"non-virtual thunk to KateView::rangeDeleted(KTextEditor::SmartRange*)@Base" 4:4.4.95
 (c++)"non-virtual thunk to KateView::readSessionConfig(KConfigGroup const&)@Base" 4:4.4.95
 (c++)"non-virtual thunk to KateView::registerCompletionModel(KTextEditor::CodeCompletionModel*)@Base" 4:4.4.95
 (c++)"non-virtual thunk to KateView::setAnnotationBorderVisible(bool)@Base" 4:4.4.95
 (c++)"non-virtual thunk to KateView::setAnnotationModel(KTextEditor::AnnotationModel*)@Base" 4:4.4.95
 (c++)"non-virtual thunk to KateView::setAutomaticInvocationEnabled(bool)@Base" 4:4.4.95
 (c++)"non-virtual thunk to KateView::setConfigValue(QString const&, QVariant const&)@Base" 4:4.4.95
 (c++)"non-virtual thunk to KateView::startCompletion(KTextEditor::Range const&, KTextEditor::CodeCompletionModel*)@Base" 4:4.4.95
 (c++)"non-virtual thunk to KateView::unregisterCompletionModel(KTextEditor::CodeCompletionModel*)@Base" 4:4.4.95
 (c++)"non-virtual thunk to KateView::writeSessionConfig(KConfigGroup&)@Base" 4:4.4.95
 (c++)"non-virtual thunk to KateView::~KateView()@Base" 4:4.4.95
 (c++)"virtual thunk to KateDocument::~KateDocument()@Base" 4:4.4.95
