# SymbolsHelper-Confirmed: 4:4.4.0 amd64
libknewstuff3.so.4 libknewstuff3-4 #MINVER#
* Build-Depends-Package: kdelibs5-dev
 _ZN4KNS312UploadDialog11qt_metacallEN11QMetaObject4CallEiPPv@Base 4:4.4.0
 _ZN4KNS312UploadDialog11qt_metacastEPKc@Base 4:4.4.0
 _ZN4KNS312UploadDialog12contentAddedEPN6Attica7BaseJobE@Base 4:4.4.0
 _ZN4KNS312UploadDialog12priceToggledEb@Base 4:4.4.0
 _ZN4KNS312UploadDialog13providerAddedERKN6Attica8ProviderE@Base 4:4.4.0
 _ZN4KNS312UploadDialog13setUploadFileERK4KUrl@Base 4:4.4.0
 _ZN4KNS312UploadDialog13setUploadNameERK7QString@Base 4:4.4.0
 _ZN4KNS312UploadDialog14previewChangedERK4KUrl@Base 4:4.4.0
 _ZN4KNS312UploadDialog16categoriesLoadedEPN6Attica7BaseJobE@Base 4:4.4.0
 _ZN4KNS312UploadDialog16staticMetaObjectE@Base 4:4.4.0
 _ZN4KNS312UploadDialog18fileUploadFinishedEPN6Attica7BaseJobE@Base 4:4.4.0
 _ZN4KNS312UploadDialog4initERK7QString@Base 4:4.4.0
 _ZN4KNS312UploadDialog6acceptEv@Base 4:4.4.0
 _ZN4KNS312UploadDialog8doUploadERK7QStringS3_@Base 4:4.4.0
 _ZN4KNS312UploadDialogC1EP7QWidget@Base 4:4.4.0
 _ZN4KNS312UploadDialogC1ERK7QStringP7QWidget@Base 4:4.4.0
 _ZN4KNS312UploadDialogC2EP7QWidget@Base 4:4.4.0
 _ZN4KNS312UploadDialogC2ERK7QStringP7QWidget@Base 4:4.4.0
 _ZN4KNS312UploadDialogD0Ev@Base 4:4.4.0
 _ZN4KNS312UploadDialogD1Ev@Base 4:4.4.0
 _ZN4KNS312UploadDialogD2Ev@Base 4:4.4.0
 _ZN4KNS314DownloadDialog11qt_metacallEN11QMetaObject4CallEiPPv@Base 4:4.4.0
 _ZN4KNS314DownloadDialog11qt_metacastEPKc@Base 4:4.4.0
 _ZN4KNS314DownloadDialog14changedEntriesEv@Base 4:4.4.0
 _ZN4KNS314DownloadDialog16installedEntriesEv@Base 4:4.4.0
 _ZN4KNS314DownloadDialog16staticMetaObjectE@Base 4:4.4.0
 _ZN4KNS314DownloadDialog4initERK7QString@Base 4:4.4.0
 _ZN4KNS314DownloadDialogC1EP7QWidget@Base 4:4.4.0
 _ZN4KNS314DownloadDialogC1ERK7QStringP7QWidget@Base 4:4.4.0
 _ZN4KNS314DownloadDialogC2EP7QWidget@Base 4:4.4.0
 _ZN4KNS314DownloadDialogC2ERK7QStringP7QWidget@Base 4:4.4.0
 _ZN4KNS314DownloadDialogD0Ev@Base 4:4.4.0
 _ZN4KNS314DownloadDialogD1Ev@Base 4:4.4.0
 _ZN4KNS314DownloadDialogD2Ev@Base 4:4.4.0
 _ZN4KNS314standardActionERK7QStringPK7QObjectPKcP17KActionCollectionS7_@Base 4:4.4.0
 _ZN4KNS35EntryC1ERKS0_@Base 4:4.4.0
 _ZN4KNS35EntryC1Ev@Base 4:4.4.0
 _ZN4KNS35EntryC2ERKS0_@Base 4:4.4.0
 _ZN4KNS35EntryC2Ev@Base 4:4.4.0
 _ZN4KNS35EntryD1Ev@Base 4:4.4.0
 _ZN4KNS35EntryD2Ev@Base 4:4.4.0
 _ZN4KNS35EntryaSERKS0_@Base 4:4.4.0
 _ZN4KNS36Button10showDialogEv@Base 4:4.4.0
 _ZN4KNS36Button11qt_metacallEN11QMetaObject4CallEiPPv@Base 4:4.4.0
 _ZN4KNS36Button11qt_metacastEPKc@Base 4:4.4.0
 _ZN4KNS36Button13setButtonTextERK7QString@Base 4:4.4.0
 _ZN4KNS36Button13setConfigFileERK7QString@Base 4:4.4.0
 _ZN4KNS36Button14dialogFinishedERK5QListINS_5EntryEE@Base 4:4.4.0
 _ZN4KNS36Button16staticMetaObjectE@Base 4:4.4.0
 _ZN4KNS36Button17aboutToShowDialogEv@Base 4:4.4.0
 _ZN4KNS36Button4initEv@Base 4:4.4.0
 _ZN4KNS36ButtonC1EP7QWidget@Base 4:4.4.0
 _ZN4KNS36ButtonC1ERK7QStringS3_P7QWidget@Base 4:4.4.0
 _ZN4KNS36ButtonC2EP7QWidget@Base 4:4.4.0
 _ZN4KNS36ButtonC2ERK7QStringS3_P7QWidget@Base 4:4.4.0
 _ZN4KNS36ButtonD0Ev@Base 4:4.4.0
 _ZN4KNS36ButtonD1Ev@Base 4:4.4.0
 _ZN4KNS36ButtonD2Ev@Base 4:4.4.0
 _ZNK4KNS312UploadDialog10metaObjectEv@Base 4:4.4.0
 _ZNK4KNS314DownloadDialog10metaObjectEv@Base 4:4.4.0
 _ZNK4KNS35Entry14installedFilesEv@Base 4:4.4.0
 _ZNK4KNS35Entry16uninstalledFilesEv@Base 4:4.4.0
 _ZNK4KNS35Entry4nameEv@Base 4:4.4.0
 _ZNK4KNS35Entry6statusEv@Base 4:4.4.0
 _ZNK4KNS35Entry7licenseEv@Base 4:4.4.0
 _ZNK4KNS35Entry7summaryEv@Base 4:4.4.0
 _ZNK4KNS35Entry7versionEv@Base 4:4.4.0
 _ZNK4KNS35Entry8categoryEv@Base 4:4.4.0
 _ZNK4KNS36Button10metaObjectEv@Base 4:4.4.0
 _ZTIN4KNS312UploadDialogE@Base 4:4.4.0
 _ZTIN4KNS314DownloadDialogE@Base 4:4.4.0
 _ZTIN4KNS36ButtonE@Base 4:4.4.0
 _ZTSN4KNS312UploadDialogE@Base 4:4.4.0
 _ZTSN4KNS314DownloadDialogE@Base 4:4.4.0
 _ZTSN4KNS36ButtonE@Base 4:4.4.0
 _ZTVN4KNS312UploadDialogE@Base 4:4.4.0
 _ZTVN4KNS314DownloadDialogE@Base 4:4.4.0
 _ZTVN4KNS36ButtonE@Base 4:4.4.0
 (c++)"non-virtual thunk to KNS3::Button::~Button()@Base" 4:4.4.0
 (c++)"non-virtual thunk to KNS3::DownloadDialog::~DownloadDialog()@Base" 4:4.4.0
 (c++)"non-virtual thunk to KNS3::UploadDialog::~UploadDialog()@Base" 4:4.4.0
